	.file	"output.cpp"
	.text
	.section	.text$_ZnwyPv,"x"
	.linkonce discard
	.globl	_ZnwyPv
	.def	_ZnwyPv;	.scl	2;	.type	32;	.endef
	.seh_proc	_ZnwyPv
_ZnwyPv:
.LFB158:
	pushq	%rbp
	.seh_pushreg	%rbp
	movq	%rsp, %rbp
	.seh_setframe	%rbp, 0
	.seh_endprologue
	movq	%rcx, 16(%rbp)
	movq	%rdx, 24(%rbp)
	movq	24(%rbp), %rax
	popq	%rbp
	ret
	.seh_endproc
	.section	.text$_ZdlPvS_,"x"
	.linkonce discard
	.globl	_ZdlPvS_
	.def	_ZdlPvS_;	.scl	2;	.type	32;	.endef
	.seh_proc	_ZdlPvS_
_ZdlPvS_:
.LFB160:
	pushq	%rbp
	.seh_pushreg	%rbp
	movq	%rsp, %rbp
	.seh_setframe	%rbp, 0
	.seh_endprologue
	movq	%rcx, 16(%rbp)
	movq	%rdx, 24(%rbp)
	nop
	popq	%rbp
	ret
	.seh_endproc
	.section	.text$_ZNSt11char_traitsIcE6assignERcRKc,"x"
	.linkonce discard
	.globl	_ZNSt11char_traitsIcE6assignERcRKc
	.def	_ZNSt11char_traitsIcE6assignERcRKc;	.scl	2;	.type	32;	.endef
	.seh_proc	_ZNSt11char_traitsIcE6assignERcRKc
_ZNSt11char_traitsIcE6assignERcRKc:
.LFB230:
	pushq	%rbp
	.seh_pushreg	%rbp
	movq	%rsp, %rbp
	.seh_setframe	%rbp, 0
	.seh_endprologue
	movq	%rcx, 16(%rbp)
	movq	%rdx, 24(%rbp)
	movq	24(%rbp), %rax
	movzbl	(%rax), %edx
	movq	16(%rbp), %rax
	movb	%dl, (%rax)
	nop
	popq	%rbp
	ret
	.seh_endproc
	.section	.text$_ZNSt11char_traitsIcE2ltERKcS2_,"x"
	.linkonce discard
	.globl	_ZNSt11char_traitsIcE2ltERKcS2_
	.def	_ZNSt11char_traitsIcE2ltERKcS2_;	.scl	2;	.type	32;	.endef
	.seh_proc	_ZNSt11char_traitsIcE2ltERKcS2_
_ZNSt11char_traitsIcE2ltERKcS2_:
.LFB232:
	pushq	%rbp
	.seh_pushreg	%rbp
	movq	%rsp, %rbp
	.seh_setframe	%rbp, 0
	.seh_endprologue
	movq	%rcx, 16(%rbp)
	movq	%rdx, 24(%rbp)
	movq	16(%rbp), %rax
	movzbl	(%rax), %eax
	movl	%eax, %edx
	movq	24(%rbp), %rax
	movzbl	(%rax), %eax
	cmpb	%al, %dl
	setb	%al
	popq	%rbp
	ret
	.seh_endproc
	.section	.text$_ZNSt11char_traitsIcE7compareEPKcS2_y,"x"
	.linkonce discard
	.globl	_ZNSt11char_traitsIcE7compareEPKcS2_y
	.def	_ZNSt11char_traitsIcE7compareEPKcS2_y;	.scl	2;	.type	32;	.endef
	.seh_proc	_ZNSt11char_traitsIcE7compareEPKcS2_y
_ZNSt11char_traitsIcE7compareEPKcS2_y:
.LFB233:
	pushq	%rbp
	.seh_pushreg	%rbp
	movq	%rsp, %rbp
	.seh_setframe	%rbp, 0
	subq	$48, %rsp
	.seh_stackalloc	48
	.seh_endprologue
	movq	%rcx, 16(%rbp)
	movq	%rdx, 24(%rbp)
	movq	%r8, 32(%rbp)
	cmpq	$0, 32(%rbp)
	jne	.L8
	movl	$0, %eax
	jmp	.L9
.L8:
	movl	$0, %eax
	testb	%al, %al
	je	.L11
	movq	$0, -8(%rbp)
	jmp	.L12
.L15:
	movq	24(%rbp), %rdx
	movq	-8(%rbp), %rax
	addq	%rax, %rdx
	movq	16(%rbp), %rcx
	movq	-8(%rbp), %rax
	addq	%rcx, %rax
	movq	%rax, %rcx
	call	_ZNSt11char_traitsIcE2ltERKcS2_
	testb	%al, %al
	je	.L13
	movl	$-1, %eax
	jmp	.L9
.L13:
	movq	16(%rbp), %rdx
	movq	-8(%rbp), %rax
	addq	%rax, %rdx
	movq	24(%rbp), %rcx
	movq	-8(%rbp), %rax
	addq	%rcx, %rax
	movq	%rax, %rcx
	call	_ZNSt11char_traitsIcE2ltERKcS2_
	testb	%al, %al
	je	.L14
	movl	$1, %eax
	jmp	.L9
.L14:
	addq	$1, -8(%rbp)
.L12:
	movq	-8(%rbp), %rax
	cmpq	32(%rbp), %rax
	jb	.L15
	movl	$0, %eax
	jmp	.L9
.L11:
	movq	32(%rbp), %rcx
	movq	24(%rbp), %rdx
	movq	16(%rbp), %rax
	movq	%rcx, %r8
	movq	%rax, %rcx
	call	memcmp
	nop
.L9:
	addq	$48, %rsp
	popq	%rbp
	ret
	.seh_endproc
	.section	.text$_ZNSt11char_traitsIcE6lengthEPKc,"x"
	.linkonce discard
	.globl	_ZNSt11char_traitsIcE6lengthEPKc
	.def	_ZNSt11char_traitsIcE6lengthEPKc;	.scl	2;	.type	32;	.endef
	.seh_proc	_ZNSt11char_traitsIcE6lengthEPKc
_ZNSt11char_traitsIcE6lengthEPKc:
.LFB234:
	pushq	%rbp
	.seh_pushreg	%rbp
	movq	%rsp, %rbp
	.seh_setframe	%rbp, 0
	subq	$32, %rsp
	.seh_stackalloc	32
	.seh_endprologue
	movq	%rcx, 16(%rbp)
	movl	$0, %eax
	testb	%al, %al
	je	.L18
	movq	16(%rbp), %rax
	movq	%rax, %rcx
	call	_ZN9__gnu_cxx11char_traitsIcE6lengthEPKc
	jmp	.L19
.L18:
	movq	16(%rbp), %rax
	movq	%rax, %rcx
	call	strlen
	nop
.L19:
	addq	$32, %rsp
	popq	%rbp
	ret
	.seh_endproc
	.section	.text$_ZNSt11char_traitsIcE4copyEPcPKcy,"x"
	.linkonce discard
	.globl	_ZNSt11char_traitsIcE4copyEPcPKcy
	.def	_ZNSt11char_traitsIcE4copyEPcPKcy;	.scl	2;	.type	32;	.endef
	.seh_proc	_ZNSt11char_traitsIcE4copyEPcPKcy
_ZNSt11char_traitsIcE4copyEPcPKcy:
.LFB237:
	pushq	%rbp
	.seh_pushreg	%rbp
	movq	%rsp, %rbp
	.seh_setframe	%rbp, 0
	subq	$32, %rsp
	.seh_stackalloc	32
	.seh_endprologue
	movq	%rcx, 16(%rbp)
	movq	%rdx, 24(%rbp)
	movq	%r8, 32(%rbp)
	cmpq	$0, 32(%rbp)
	jne	.L21
	movq	16(%rbp), %rax
	jmp	.L22
.L21:
	movq	16(%rbp), %rdx
	movq	24(%rbp), %rax
	movq	%rdx, %rcx
	movq	%rax, %rdx
	movq	32(%rbp), %rax
	movq	%rax, %r8
	call	memcpy
	nop
.L22:
	addq	$32, %rsp
	popq	%rbp
	ret
	.seh_endproc
	.globl	_ZSt19piecewise_construct
	.section	.rdata$_ZSt19piecewise_construct,"dr"
	.linkonce same_size
_ZSt19piecewise_construct:
	.space 1
	.section	.text$_ZNKSt18_Rb_tree_node_base11_M_base_ptrEv,"x"
	.linkonce discard
	.align 2
	.globl	_ZNKSt18_Rb_tree_node_base11_M_base_ptrEv
	.def	_ZNKSt18_Rb_tree_node_base11_M_base_ptrEv;	.scl	2;	.type	32;	.endef
	.seh_proc	_ZNKSt18_Rb_tree_node_base11_M_base_ptrEv
_ZNKSt18_Rb_tree_node_base11_M_base_ptrEv:
.LFB2238:
	pushq	%rbp
	.seh_pushreg	%rbp
	movq	%rsp, %rbp
	.seh_setframe	%rbp, 0
	.seh_endprologue
	movq	%rcx, 16(%rbp)
	movq	16(%rbp), %rax
	popq	%rbp
	ret
	.seh_endproc
	.section	.text$_ZNSt15_Rb_tree_headerC2Ev,"x"
	.linkonce discard
	.align 2
	.globl	_ZNSt15_Rb_tree_headerC2Ev
	.def	_ZNSt15_Rb_tree_headerC2Ev;	.scl	2;	.type	32;	.endef
	.seh_proc	_ZNSt15_Rb_tree_headerC2Ev
_ZNSt15_Rb_tree_headerC2Ev:
.LFB2243:
	pushq	%rbp
	.seh_pushreg	%rbp
	movq	%rsp, %rbp
	.seh_setframe	%rbp, 0
	subq	$32, %rsp
	.seh_stackalloc	32
	.seh_endprologue
	movq	%rcx, 16(%rbp)
	movq	16(%rbp), %rax
	movl	$0, (%rax)
	movq	16(%rbp), %rax
	movq	%rax, %rcx
	call	_ZNSt15_Rb_tree_header8_M_resetEv
	nop
	addq	$32, %rsp
	popq	%rbp
	ret
	.seh_endproc
	.section	.text$_ZNSt15_Rb_tree_headerC2EOS_,"x"
	.linkonce discard
	.align 2
	.globl	_ZNSt15_Rb_tree_headerC2EOS_
	.def	_ZNSt15_Rb_tree_headerC2EOS_;	.scl	2;	.type	32;	.endef
	.seh_proc	_ZNSt15_Rb_tree_headerC2EOS_
_ZNSt15_Rb_tree_headerC2EOS_:
.LFB2246:
	pushq	%rbp
	.seh_pushreg	%rbp
	movq	%rsp, %rbp
	.seh_setframe	%rbp, 0
	subq	$32, %rsp
	.seh_stackalloc	32
	.seh_endprologue
	movq	%rcx, 16(%rbp)
	movq	%rdx, 24(%rbp)
	movq	24(%rbp), %rax
	movq	8(%rax), %rax
	testq	%rax, %rax
	je	.L27
	movq	24(%rbp), %rdx
	movq	16(%rbp), %rax
	movq	%rax, %rcx
	call	_ZNSt15_Rb_tree_header12_M_move_dataERS_
	jmp	.L29
.L27:
	movq	16(%rbp), %rax
	movl	$0, (%rax)
	movq	16(%rbp), %rax
	movq	%rax, %rcx
	call	_ZNSt15_Rb_tree_header8_M_resetEv
.L29:
	nop
	addq	$32, %rsp
	popq	%rbp
	ret
	.seh_handler	__gxx_personality_seh0, @unwind, @except
	.seh_handlerdata
.LLSDA2246:
	.byte	0xff
	.byte	0xff
	.byte	0x1
	.uleb128 .LLSDACSE2246-.LLSDACSB2246
.LLSDACSB2246:
.LLSDACSE2246:
	.section	.text$_ZNSt15_Rb_tree_headerC2EOS_,"x"
	.linkonce discard
	.seh_endproc
	.section	.text$_ZNSt15_Rb_tree_header12_M_move_dataERS_,"x"
	.linkonce discard
	.align 2
	.globl	_ZNSt15_Rb_tree_header12_M_move_dataERS_
	.def	_ZNSt15_Rb_tree_header12_M_move_dataERS_;	.scl	2;	.type	32;	.endef
	.seh_proc	_ZNSt15_Rb_tree_header12_M_move_dataERS_
_ZNSt15_Rb_tree_header12_M_move_dataERS_:
.LFB2248:
	pushq	%rbp
	.seh_pushreg	%rbp
	movq	%rsp, %rbp
	.seh_setframe	%rbp, 0
	subq	$32, %rsp
	.seh_stackalloc	32
	.seh_endprologue
	movq	%rcx, 16(%rbp)
	movq	%rdx, 24(%rbp)
	movq	24(%rbp), %rax
	movl	(%rax), %edx
	movq	16(%rbp), %rax
	movl	%edx, (%rax)
	movq	24(%rbp), %rax
	movq	8(%rax), %rdx
	movq	16(%rbp), %rax
	movq	%rdx, 8(%rax)
	movq	24(%rbp), %rax
	movq	16(%rax), %rdx
	movq	16(%rbp), %rax
	movq	%rdx, 16(%rax)
	movq	24(%rbp), %rax
	movq	24(%rax), %rdx
	movq	16(%rbp), %rax
	movq	%rdx, 24(%rax)
	movq	16(%rbp), %rax
	movq	8(%rax), %rax
	movq	16(%rbp), %rdx
	movq	%rdx, 8(%rax)
	movq	24(%rbp), %rax
	movq	32(%rax), %rdx
	movq	16(%rbp), %rax
	movq	%rdx, 32(%rax)
	movq	24(%rbp), %rax
	movq	%rax, %rcx
	call	_ZNSt15_Rb_tree_header8_M_resetEv
	nop
	addq	$32, %rsp
	popq	%rbp
	ret
	.seh_endproc
	.section	.text$_ZNSt15_Rb_tree_header8_M_resetEv,"x"
	.linkonce discard
	.align 2
	.globl	_ZNSt15_Rb_tree_header8_M_resetEv
	.def	_ZNSt15_Rb_tree_header8_M_resetEv;	.scl	2;	.type	32;	.endef
	.seh_proc	_ZNSt15_Rb_tree_header8_M_resetEv
_ZNSt15_Rb_tree_header8_M_resetEv:
.LFB2249:
	pushq	%rbp
	.seh_pushreg	%rbp
	movq	%rsp, %rbp
	.seh_setframe	%rbp, 0
	.seh_endprologue
	movq	%rcx, 16(%rbp)
	movq	16(%rbp), %rax
	movq	$0, 8(%rax)
	movq	16(%rbp), %rdx
	movq	16(%rbp), %rax
	movq	%rdx, 16(%rax)
	movq	16(%rbp), %rdx
	movq	16(%rbp), %rax
	movq	%rdx, 24(%rax)
	movq	16(%rbp), %rax
	movq	$0, 32(%rax)
	nop
	popq	%rbp
	ret
	.seh_endproc
	.section	.text$_ZN5ValueC1Ev,"x"
	.linkonce discard
	.align 2
	.globl	_ZN5ValueC1Ev
	.def	_ZN5ValueC1Ev;	.scl	2;	.type	32;	.endef
	.seh_proc	_ZN5ValueC1Ev
_ZN5ValueC1Ev:
.LFB2995:
	pushq	%rbp
	.seh_pushreg	%rbp
	movq	%rsp, %rbp
	.seh_setframe	%rbp, 0
	subq	$32, %rsp
	.seh_stackalloc	32
	.seh_endprologue
	movq	%rcx, 16(%rbp)
	movq	16(%rbp), %rax
	movl	$0, (%rax)
	movq	16(%rbp), %rax
	movl	$0, 4(%rax)
	movq	16(%rbp), %rax
	pxor	%xmm0, %xmm0
	movsd	%xmm0, 8(%rax)
	movq	16(%rbp), %rax
	addq	$16, %rax
	movq	%rax, %rcx
	call	_ZNSt7__cxx1112basic_stringIcSt11char_traitsIcESaIcEEC1Ev
	movq	16(%rbp), %rax
	movq	$0, 48(%rax)
	movq	16(%rbp), %rax
	movq	$0, 56(%rax)
	nop
	addq	$32, %rsp
	popq	%rbp
	ret
	.seh_endproc
	.section	.text$_ZN5ValueC1Ei,"x"
	.linkonce discard
	.align 2
	.globl	_ZN5ValueC1Ei
	.def	_ZN5ValueC1Ei;	.scl	2;	.type	32;	.endef
	.seh_proc	_ZN5ValueC1Ei
_ZN5ValueC1Ei:
.LFB2998:
	pushq	%rbp
	.seh_pushreg	%rbp
	movq	%rsp, %rbp
	.seh_setframe	%rbp, 0
	subq	$32, %rsp
	.seh_stackalloc	32
	.seh_endprologue
	movq	%rcx, 16(%rbp)
	movl	%edx, 24(%rbp)
	movq	16(%rbp), %rax
	movl	$0, (%rax)
	movq	16(%rbp), %rax
	movl	24(%rbp), %edx
	movl	%edx, 4(%rax)
	movq	16(%rbp), %rax
	pxor	%xmm0, %xmm0
	movsd	%xmm0, 8(%rax)
	movq	16(%rbp), %rax
	addq	$16, %rax
	movq	%rax, %rcx
	call	_ZNSt7__cxx1112basic_stringIcSt11char_traitsIcESaIcEEC1Ev
	movq	16(%rbp), %rax
	movq	$0, 48(%rax)
	movq	16(%rbp), %rax
	movq	$0, 56(%rax)
	nop
	addq	$32, %rsp
	popq	%rbp
	ret
	.seh_endproc
	.section	.text$_ZN5ValueC1Ed,"x"
	.linkonce discard
	.align 2
	.globl	_ZN5ValueC1Ed
	.def	_ZN5ValueC1Ed;	.scl	2;	.type	32;	.endef
	.seh_proc	_ZN5ValueC1Ed
_ZN5ValueC1Ed:
.LFB3001:
	pushq	%rbp
	.seh_pushreg	%rbp
	movq	%rsp, %rbp
	.seh_setframe	%rbp, 0
	subq	$32, %rsp
	.seh_stackalloc	32
	.seh_endprologue
	movq	%rcx, 16(%rbp)
	movsd	%xmm1, 24(%rbp)
	movq	16(%rbp), %rax
	movl	$3, (%rax)
	movq	16(%rbp), %rax
	movl	$0, 4(%rax)
	movq	16(%rbp), %rax
	movsd	24(%rbp), %xmm0
	movsd	%xmm0, 8(%rax)
	movq	16(%rbp), %rax
	addq	$16, %rax
	movq	%rax, %rcx
	call	_ZNSt7__cxx1112basic_stringIcSt11char_traitsIcESaIcEEC1Ev
	movq	16(%rbp), %rax
	movq	$0, 48(%rax)
	movq	16(%rbp), %rax
	movq	$0, 56(%rax)
	nop
	addq	$32, %rsp
	popq	%rbp
	ret
	.seh_endproc
	.section	.text$_ZN5ValueC1ENSt7__cxx1112basic_stringIcSt11char_traitsIcESaIcEEE,"x"
	.linkonce discard
	.align 2
	.globl	_ZN5ValueC1ENSt7__cxx1112basic_stringIcSt11char_traitsIcESaIcEEE
	.def	_ZN5ValueC1ENSt7__cxx1112basic_stringIcSt11char_traitsIcESaIcEEE;	.scl	2;	.type	32;	.endef
	.seh_proc	_ZN5ValueC1ENSt7__cxx1112basic_stringIcSt11char_traitsIcESaIcEEE
_ZN5ValueC1ENSt7__cxx1112basic_stringIcSt11char_traitsIcESaIcEEE:
.LFB3004:
	pushq	%rbp
	.seh_pushreg	%rbp
	movq	%rsp, %rbp
	.seh_setframe	%rbp, 0
	subq	$32, %rsp
	.seh_stackalloc	32
	.seh_endprologue
	movq	%rcx, 16(%rbp)
	movq	%rdx, 24(%rbp)
	movq	16(%rbp), %rax
	movl	$1, (%rax)
	movq	16(%rbp), %rax
	movl	$0, 4(%rax)
	movq	16(%rbp), %rax
	pxor	%xmm0, %xmm0
	movsd	%xmm0, 8(%rax)
	movq	16(%rbp), %rax
	leaq	16(%rax), %rcx
	movq	24(%rbp), %rax
	movq	%rax, %rdx
	call	_ZNSt7__cxx1112basic_stringIcSt11char_traitsIcESaIcEEC1ERKS4_
	movq	16(%rbp), %rax
	movq	$0, 48(%rax)
	movq	16(%rbp), %rax
	movq	$0, 56(%rax)
	nop
	addq	$32, %rsp
	popq	%rbp
	ret
	.seh_endproc
	.section	.text$_ZN5ValueC1EPSt3mapINSt7__cxx1112basic_stringIcSt11char_traitsIcESaIcEEES_St4lessIS6_ESaISt4pairIKS6_S_EEE,"x"
	.linkonce discard
	.align 2
	.globl	_ZN5ValueC1EPSt3mapINSt7__cxx1112basic_stringIcSt11char_traitsIcESaIcEEES_St4lessIS6_ESaISt4pairIKS6_S_EEE
	.def	_ZN5ValueC1EPSt3mapINSt7__cxx1112basic_stringIcSt11char_traitsIcESaIcEEES_St4lessIS6_ESaISt4pairIKS6_S_EEE;	.scl	2;	.type	32;	.endef
	.seh_proc	_ZN5ValueC1EPSt3mapINSt7__cxx1112basic_stringIcSt11char_traitsIcESaIcEEES_St4lessIS6_ESaISt4pairIKS6_S_EEE
_ZN5ValueC1EPSt3mapINSt7__cxx1112basic_stringIcSt11char_traitsIcESaIcEEES_St4lessIS6_ESaISt4pairIKS6_S_EEE:
.LFB3007:
	pushq	%rbp
	.seh_pushreg	%rbp
	movq	%rsp, %rbp
	.seh_setframe	%rbp, 0
	subq	$32, %rsp
	.seh_stackalloc	32
	.seh_endprologue
	movq	%rcx, 16(%rbp)
	movq	%rdx, 24(%rbp)
	movq	16(%rbp), %rax
	movl	$2, (%rax)
	movq	16(%rbp), %rax
	movl	$0, 4(%rax)
	movq	16(%rbp), %rax
	pxor	%xmm0, %xmm0
	movsd	%xmm0, 8(%rax)
	movq	16(%rbp), %rax
	addq	$16, %rax
	movq	%rax, %rcx
	call	_ZNSt7__cxx1112basic_stringIcSt11char_traitsIcESaIcEEC1Ev
	movq	16(%rbp), %rax
	movq	24(%rbp), %rdx
	movq	%rdx, 48(%rax)
	movq	16(%rbp), %rax
	movq	$0, 56(%rax)
	nop
	addq	$32, %rsp
	popq	%rbp
	ret
	.seh_endproc
	.section	.text$_ZN5Value6getValEv,"x"
	.linkonce discard
	.align 2
	.globl	_ZN5Value6getValEv
	.def	_ZN5Value6getValEv;	.scl	2;	.type	32;	.endef
	.seh_proc	_ZN5Value6getValEv
_ZN5Value6getValEv:
.LFB3008:
	pushq	%rbp
	.seh_pushreg	%rbp
	movq	%rsp, %rbp
	.seh_setframe	%rbp, 0
	.seh_endprologue
	movq	%rcx, 16(%rbp)
	movq	16(%rbp), %rax
	movl	(%rax), %eax
	cmpl	$3, %eax
	jne	.L38
	movq	16(%rbp), %rax
	movsd	8(%rax), %xmm0
	jmp	.L39
.L38:
	movq	16(%rbp), %rax
	movl	4(%rax), %eax
	pxor	%xmm0, %xmm0
	cvtsi2sdl	%eax, %xmm0
.L39:
	popq	%rbp
	ret
	.seh_endproc
	.section	.text$_ZNSt8_Rb_treeIiSt4pairIKi5ValueESt10_Select1stIS3_ESt4lessIiESaIS3_EEC1Ev,"x"
	.linkonce discard
	.align 2
	.globl	_ZNSt8_Rb_treeIiSt4pairIKi5ValueESt10_Select1stIS3_ESt4lessIiESaIS3_EEC1Ev
	.def	_ZNSt8_Rb_treeIiSt4pairIKi5ValueESt10_Select1stIS3_ESt4lessIiESaIS3_EEC1Ev;	.scl	2;	.type	32;	.endef
	.seh_proc	_ZNSt8_Rb_treeIiSt4pairIKi5ValueESt10_Select1stIS3_ESt4lessIiESaIS3_EEC1Ev
_ZNSt8_Rb_treeIiSt4pairIKi5ValueESt10_Select1stIS3_ESt4lessIiESaIS3_EEC1Ev:
.LFB3019:
	pushq	%rbp
	.seh_pushreg	%rbp
	movq	%rsp, %rbp
	.seh_setframe	%rbp, 0
	subq	$32, %rsp
	.seh_stackalloc	32
	.seh_endprologue
	movq	%rcx, 16(%rbp)
	movq	16(%rbp), %rax
	movq	%rax, %rcx
	call	_ZNSt8_Rb_treeIiSt4pairIKi5ValueESt10_Select1stIS3_ESt4lessIiESaIS3_EE13_Rb_tree_implIS7_Lb1EEC1Ev
	nop
	addq	$32, %rsp
	popq	%rbp
	ret
	.seh_endproc
	.section	.text$_ZNSt3mapIi5ValueSt4lessIiESaISt4pairIKiS0_EEEC1Ev,"x"
	.linkonce discard
	.align 2
	.globl	_ZNSt3mapIi5ValueSt4lessIiESaISt4pairIKiS0_EEEC1Ev
	.def	_ZNSt3mapIi5ValueSt4lessIiESaISt4pairIKiS0_EEEC1Ev;	.scl	2;	.type	32;	.endef
	.seh_proc	_ZNSt3mapIi5ValueSt4lessIiESaISt4pairIKiS0_EEEC1Ev
_ZNSt3mapIi5ValueSt4lessIiESaISt4pairIKiS0_EEEC1Ev:
.LFB3021:
	pushq	%rbp
	.seh_pushreg	%rbp
	movq	%rsp, %rbp
	.seh_setframe	%rbp, 0
	subq	$32, %rsp
	.seh_stackalloc	32
	.seh_endprologue
	movq	%rcx, 16(%rbp)
	movq	16(%rbp), %rax
	movq	%rax, %rcx
	call	_ZNSt8_Rb_treeIiSt4pairIKi5ValueESt10_Select1stIS3_ESt4lessIiESaIS3_EEC1Ev
	nop
	addq	$32, %rsp
	popq	%rbp
	ret
	.seh_endproc
	.section	.text$_ZN5ValueixEi,"x"
	.linkonce discard
	.align 2
	.globl	_ZN5ValueixEi
	.def	_ZN5ValueixEi;	.scl	2;	.type	32;	.endef
	.seh_proc	_ZN5ValueixEi
_ZN5ValueixEi:
.LFB3009:
	pushq	%rbp
	.seh_pushreg	%rbp
	pushq	%rbx
	.seh_pushreg	%rbx
	subq	$40, %rsp
	.seh_stackalloc	40
	leaq	32(%rsp), %rbp
	.seh_setframe	%rbp, 32
	.seh_endprologue
	movq	%rcx, 32(%rbp)
	movl	%edx, 40(%rbp)
	movq	32(%rbp), %rax
	movq	56(%rax), %rax
	testq	%rax, %rax
	jne	.L43
	movq	32(%rbp), %rax
	movl	$4, (%rax)
	movl	$48, %ecx
	call	_Znwy
	movq	%rax, %rbx
	pxor	%xmm0, %xmm0
	movups	%xmm0, (%rbx)
	movups	%xmm0, 16(%rbx)
	movups	%xmm0, 32(%rbx)
	movq	%rbx, %rcx
	call	_ZNSt3mapIi5ValueSt4lessIiESaISt4pairIKiS0_EEEC1Ev
	movl	$0, %edx
	movq	32(%rbp), %rax
	movq	%rbx, 56(%rax)
	testb	%dl, %dl
	je	.L46
	movl	$48, %edx
	movq	%rbx, %rcx
	call	_ZdlPvy
.L46:
	nop
.L43:
	movq	32(%rbp), %rax
	movq	56(%rax), %rax
	leaq	40(%rbp), %rdx
	movq	%rax, %rcx
	call	_ZNSt3mapIi5ValueSt4lessIiESaISt4pairIKiS0_EEEixERS4_
	addq	$40, %rsp
	popq	%rbx
	popq	%rbp
	ret
	.seh_endproc
	.section .rdata,"dr"
.LC1:
	.ascii "[Object Reference]\0"
.LC2:
	.ascii "[Array Reference]\0"
	.section	.text$_ZN5Value5printEv,"x"
	.linkonce discard
	.align 2
	.globl	_ZN5Value5printEv
	.def	_ZN5Value5printEv;	.scl	2;	.type	32;	.endef
	.seh_proc	_ZN5Value5printEv
_ZN5Value5printEv:
.LFB3022:
	pushq	%rbp
	.seh_pushreg	%rbp
	movq	%rsp, %rbp
	.seh_setframe	%rbp, 0
	subq	$32, %rsp
	.seh_stackalloc	32
	.seh_endprologue
	movq	%rcx, 16(%rbp)
	movq	16(%rbp), %rax
	movl	(%rax), %eax
	cmpl	$2, %eax
	jne	.L48
	leaq	.LC1(%rip), %rdx
	movq	.refptr._ZSt4cout(%rip), %rax
	movq	%rax, %rcx
	call	_ZStlsISt11char_traitsIcEERSt13basic_ostreamIcT_ES5_PKc
	jmp	.L53
.L48:
	movq	16(%rbp), %rax
	movl	(%rax), %eax
	cmpl	$4, %eax
	jne	.L50
	leaq	.LC2(%rip), %rdx
	movq	.refptr._ZSt4cout(%rip), %rax
	movq	%rax, %rcx
	call	_ZStlsISt11char_traitsIcEERSt13basic_ostreamIcT_ES5_PKc
	jmp	.L53
.L50:
	movq	16(%rbp), %rax
	movl	(%rax), %eax
	cmpl	$1, %eax
	jne	.L51
	movq	16(%rbp), %rax
	leaq	16(%rax), %rdx
	movq	.refptr._ZSt4cout(%rip), %rax
	movq	%rax, %rcx
	call	_ZStlsIcSt11char_traitsIcESaIcEERSt13basic_ostreamIT_T0_ES7_RKNSt7__cxx1112basic_stringIS4_S5_T1_EE
	jmp	.L53
.L51:
	movq	16(%rbp), %rax
	movl	(%rax), %eax
	cmpl	$3, %eax
	jne	.L52
	movq	16(%rbp), %rax
	movsd	8(%rax), %xmm0
	movq	.refptr._ZSt4cout(%rip), %rax
	movapd	%xmm0, %xmm1
	movq	%rax, %rcx
	call	_ZNSolsEd
	jmp	.L53
.L52:
	movq	16(%rbp), %rax
	movl	4(%rax), %edx
	movq	.refptr._ZSt4cout(%rip), %rax
	movq	%rax, %rcx
	call	_ZNSolsEi
.L53:
	nop
	addq	$32, %rsp
	popq	%rbp
	ret
	.seh_endproc
	.section	.text$_ZNSt12_Vector_baseISt3mapINSt7__cxx1112basic_stringIcSt11char_traitsIcESaIcEEE5ValueSt4lessIS6_ESaISt4pairIKS6_S7_EEESaISE_EE12_Vector_implD1Ev,"x"
	.linkonce discard
	.align 2
	.globl	_ZNSt12_Vector_baseISt3mapINSt7__cxx1112basic_stringIcSt11char_traitsIcESaIcEEE5ValueSt4lessIS6_ESaISt4pairIKS6_S7_EEESaISE_EE12_Vector_implD1Ev
	.def	_ZNSt12_Vector_baseISt3mapINSt7__cxx1112basic_stringIcSt11char_traitsIcESaIcEEE5ValueSt4lessIS6_ESaISt4pairIKS6_S7_EEESaISE_EE12_Vector_implD1Ev;	.scl	2;	.type	32;	.endef
	.seh_proc	_ZNSt12_Vector_baseISt3mapINSt7__cxx1112basic_stringIcSt11char_traitsIcESaIcEEE5ValueSt4lessIS6_ESaISt4pairIKS6_S7_EEESaISE_EE12_Vector_implD1Ev
_ZNSt12_Vector_baseISt3mapINSt7__cxx1112basic_stringIcSt11char_traitsIcESaIcEEE5ValueSt4lessIS6_ESaISt4pairIKS6_S7_EEESaISE_EE12_Vector_implD1Ev:
.LFB3029:
	pushq	%rbp
	.seh_pushreg	%rbp
	movq	%rsp, %rbp
	.seh_setframe	%rbp, 0
	subq	$48, %rsp
	.seh_stackalloc	48
	.seh_endprologue
	movq	%rcx, 16(%rbp)
	movq	16(%rbp), %rax
	movq	%rax, -8(%rbp)
	movq	-8(%rbp), %rax
	movq	%rax, %rcx
	call	_ZNSt15__new_allocatorISt3mapINSt7__cxx1112basic_stringIcSt11char_traitsIcESaIcEEE5ValueSt4lessIS6_ESaISt4pairIKS6_S7_EEEED2Ev
	nop
	nop
	addq	$48, %rsp
	popq	%rbp
	ret
	.seh_endproc
	.section	.text$_ZNSt12_Vector_baseISt3mapINSt7__cxx1112basic_stringIcSt11char_traitsIcESaIcEEE5ValueSt4lessIS6_ESaISt4pairIKS6_S7_EEESaISE_EEC2Ev,"x"
	.linkonce discard
	.align 2
	.globl	_ZNSt12_Vector_baseISt3mapINSt7__cxx1112basic_stringIcSt11char_traitsIcESaIcEEE5ValueSt4lessIS6_ESaISt4pairIKS6_S7_EEESaISE_EEC2Ev
	.def	_ZNSt12_Vector_baseISt3mapINSt7__cxx1112basic_stringIcSt11char_traitsIcESaIcEEE5ValueSt4lessIS6_ESaISt4pairIKS6_S7_EEESaISE_EEC2Ev;	.scl	2;	.type	32;	.endef
	.seh_proc	_ZNSt12_Vector_baseISt3mapINSt7__cxx1112basic_stringIcSt11char_traitsIcESaIcEEE5ValueSt4lessIS6_ESaISt4pairIKS6_S7_EEESaISE_EEC2Ev
_ZNSt12_Vector_baseISt3mapINSt7__cxx1112basic_stringIcSt11char_traitsIcESaIcEEE5ValueSt4lessIS6_ESaISt4pairIKS6_S7_EEESaISE_EEC2Ev:
.LFB3030:
	pushq	%rbp
	.seh_pushreg	%rbp
	movq	%rsp, %rbp
	.seh_setframe	%rbp, 0
	subq	$32, %rsp
	.seh_stackalloc	32
	.seh_endprologue
	movq	%rcx, 16(%rbp)
	movq	16(%rbp), %rax
	movq	%rax, %rcx
	call	_ZNSt12_Vector_baseISt3mapINSt7__cxx1112basic_stringIcSt11char_traitsIcESaIcEEE5ValueSt4lessIS6_ESaISt4pairIKS6_S7_EEESaISE_EE12_Vector_implC1Ev
	nop
	addq	$32, %rsp
	popq	%rbp
	ret
	.seh_endproc
	.section	.text$_ZNSt6vectorISt3mapINSt7__cxx1112basic_stringIcSt11char_traitsIcESaIcEEE5ValueSt4lessIS6_ESaISt4pairIKS6_S7_EEESaISE_EEC1Ev,"x"
	.linkonce discard
	.align 2
	.globl	_ZNSt6vectorISt3mapINSt7__cxx1112basic_stringIcSt11char_traitsIcESaIcEEE5ValueSt4lessIS6_ESaISt4pairIKS6_S7_EEESaISE_EEC1Ev
	.def	_ZNSt6vectorISt3mapINSt7__cxx1112basic_stringIcSt11char_traitsIcESaIcEEE5ValueSt4lessIS6_ESaISt4pairIKS6_S7_EEESaISE_EEC1Ev;	.scl	2;	.type	32;	.endef
	.seh_proc	_ZNSt6vectorISt3mapINSt7__cxx1112basic_stringIcSt11char_traitsIcESaIcEEE5ValueSt4lessIS6_ESaISt4pairIKS6_S7_EEESaISE_EEC1Ev
_ZNSt6vectorISt3mapINSt7__cxx1112basic_stringIcSt11char_traitsIcESaIcEEE5ValueSt4lessIS6_ESaISt4pairIKS6_S7_EEESaISE_EEC1Ev:
.LFB3033:
	pushq	%rbp
	.seh_pushreg	%rbp
	movq	%rsp, %rbp
	.seh_setframe	%rbp, 0
	subq	$32, %rsp
	.seh_stackalloc	32
	.seh_endprologue
	movq	%rcx, 16(%rbp)
	movq	16(%rbp), %rax
	movq	%rax, %rcx
	call	_ZNSt12_Vector_baseISt3mapINSt7__cxx1112basic_stringIcSt11char_traitsIcESaIcEEE5ValueSt4lessIS6_ESaISt4pairIKS6_S7_EEESaISE_EEC2Ev
	nop
	addq	$32, %rsp
	popq	%rbp
	ret
	.seh_endproc
	.globl	_Z5stackB5cxx11
	.bss
	.align 16
_Z5stackB5cxx11:
	.space 24
	.section	.text$_ZNSt8_Rb_treeINSt7__cxx1112basic_stringIcSt11char_traitsIcESaIcEEESt4pairIKS5_5ValueESt10_Select1stIS9_ESt4lessIS5_ESaIS9_EE13_Rb_tree_implISD_Lb1EED1Ev,"x"
	.linkonce discard
	.align 2
	.globl	_ZNSt8_Rb_treeINSt7__cxx1112basic_stringIcSt11char_traitsIcESaIcEEESt4pairIKS5_5ValueESt10_Select1stIS9_ESt4lessIS5_ESaIS9_EE13_Rb_tree_implISD_Lb1EED1Ev
	.def	_ZNSt8_Rb_treeINSt7__cxx1112basic_stringIcSt11char_traitsIcESaIcEEESt4pairIKS5_5ValueESt10_Select1stIS9_ESt4lessIS5_ESaIS9_EE13_Rb_tree_implISD_Lb1EED1Ev;	.scl	2;	.type	32;	.endef
	.seh_proc	_ZNSt8_Rb_treeINSt7__cxx1112basic_stringIcSt11char_traitsIcESaIcEEESt4pairIKS5_5ValueESt10_Select1stIS9_ESt4lessIS5_ESaIS9_EE13_Rb_tree_implISD_Lb1EED1Ev
_ZNSt8_Rb_treeINSt7__cxx1112basic_stringIcSt11char_traitsIcESaIcEEESt4pairIKS5_5ValueESt10_Select1stIS9_ESt4lessIS5_ESaIS9_EE13_Rb_tree_implISD_Lb1EED1Ev:
.LFB3041:
	pushq	%rbp
	.seh_pushreg	%rbp
	movq	%rsp, %rbp
	.seh_setframe	%rbp, 0
	subq	$48, %rsp
	.seh_stackalloc	48
	.seh_endprologue
	movq	%rcx, 16(%rbp)
	movq	16(%rbp), %rax
	movq	%rax, -8(%rbp)
	movq	-8(%rbp), %rax
	movq	%rax, %rcx
	call	_ZNSt15__new_allocatorISt13_Rb_tree_nodeISt4pairIKNSt7__cxx1112basic_stringIcSt11char_traitsIcESaIcEEE5ValueEEED2Ev
	nop
	nop
	addq	$48, %rsp
	popq	%rbp
	ret
	.seh_endproc
	.section	.text$_ZNSt8_Rb_treeINSt7__cxx1112basic_stringIcSt11char_traitsIcESaIcEEESt4pairIKS5_5ValueESt10_Select1stIS9_ESt4lessIS5_ESaIS9_EEC1Ev,"x"
	.linkonce discard
	.align 2
	.globl	_ZNSt8_Rb_treeINSt7__cxx1112basic_stringIcSt11char_traitsIcESaIcEEESt4pairIKS5_5ValueESt10_Select1stIS9_ESt4lessIS5_ESaIS9_EEC1Ev
	.def	_ZNSt8_Rb_treeINSt7__cxx1112basic_stringIcSt11char_traitsIcESaIcEEESt4pairIKS5_5ValueESt10_Select1stIS9_ESt4lessIS5_ESaIS9_EEC1Ev;	.scl	2;	.type	32;	.endef
	.seh_proc	_ZNSt8_Rb_treeINSt7__cxx1112basic_stringIcSt11char_traitsIcESaIcEEESt4pairIKS5_5ValueESt10_Select1stIS9_ESt4lessIS5_ESaIS9_EEC1Ev
_ZNSt8_Rb_treeINSt7__cxx1112basic_stringIcSt11char_traitsIcESaIcEEESt4pairIKS5_5ValueESt10_Select1stIS9_ESt4lessIS5_ESaIS9_EEC1Ev:
.LFB3043:
	pushq	%rbp
	.seh_pushreg	%rbp
	movq	%rsp, %rbp
	.seh_setframe	%rbp, 0
	subq	$32, %rsp
	.seh_stackalloc	32
	.seh_endprologue
	movq	%rcx, 16(%rbp)
	movq	16(%rbp), %rax
	movq	%rax, %rcx
	call	_ZNSt8_Rb_treeINSt7__cxx1112basic_stringIcSt11char_traitsIcESaIcEEESt4pairIKS5_5ValueESt10_Select1stIS9_ESt4lessIS5_ESaIS9_EE13_Rb_tree_implISD_Lb1EEC1Ev
	nop
	addq	$32, %rsp
	popq	%rbp
	ret
	.seh_endproc
	.section	.text$_ZNSt3mapINSt7__cxx1112basic_stringIcSt11char_traitsIcESaIcEEE5ValueSt4lessIS5_ESaISt4pairIKS5_S6_EEEC1Ev,"x"
	.linkonce discard
	.align 2
	.globl	_ZNSt3mapINSt7__cxx1112basic_stringIcSt11char_traitsIcESaIcEEE5ValueSt4lessIS5_ESaISt4pairIKS5_S6_EEEC1Ev
	.def	_ZNSt3mapINSt7__cxx1112basic_stringIcSt11char_traitsIcESaIcEEE5ValueSt4lessIS5_ESaISt4pairIKS5_S6_EEEC1Ev;	.scl	2;	.type	32;	.endef
	.seh_proc	_ZNSt3mapINSt7__cxx1112basic_stringIcSt11char_traitsIcESaIcEEE5ValueSt4lessIS5_ESaISt4pairIKS5_S6_EEEC1Ev
_ZNSt3mapINSt7__cxx1112basic_stringIcSt11char_traitsIcESaIcEEE5ValueSt4lessIS5_ESaISt4pairIKS5_S6_EEEC1Ev:
.LFB3045:
	pushq	%rbp
	.seh_pushreg	%rbp
	movq	%rsp, %rbp
	.seh_setframe	%rbp, 0
	subq	$32, %rsp
	.seh_stackalloc	32
	.seh_endprologue
	movq	%rcx, 16(%rbp)
	movq	16(%rbp), %rax
	movq	%rax, %rcx
	call	_ZNSt8_Rb_treeINSt7__cxx1112basic_stringIcSt11char_traitsIcESaIcEEESt4pairIKS5_5ValueESt10_Select1stIS9_ESt4lessIS5_ESaIS9_EEC1Ev
	nop
	addq	$32, %rsp
	popq	%rbp
	ret
	.seh_endproc
	.globl	_Z7globalsB5cxx11
	.bss
	.align 32
_Z7globalsB5cxx11:
	.space 48
	.text
	.globl	_Z6getVarNSt7__cxx1112basic_stringIcSt11char_traitsIcESaIcEEE
	.def	_Z6getVarNSt7__cxx1112basic_stringIcSt11char_traitsIcESaIcEEE;	.scl	2;	.type	32;	.endef
	.seh_proc	_Z6getVarNSt7__cxx1112basic_stringIcSt11char_traitsIcESaIcEEE
_Z6getVarNSt7__cxx1112basic_stringIcSt11char_traitsIcESaIcEEE:
.LFB3046:
	pushq	%rbp
	.seh_pushreg	%rbp
	movq	%rsp, %rbp
	.seh_setframe	%rbp, 0
	subq	$32, %rsp
	.seh_stackalloc	32
	.seh_endprologue
	movq	%rcx, 16(%rbp)
	leaq	_Z5stackB5cxx11(%rip), %rax
	movq	%rax, %rcx
	call	_ZNKSt6vectorISt3mapINSt7__cxx1112basic_stringIcSt11char_traitsIcESaIcEEE5ValueSt4lessIS6_ESaISt4pairIKS6_S7_EEESaISE_EE5emptyEv
	xorl	$1, %eax
	testb	%al, %al
	je	.L61
	leaq	_Z5stackB5cxx11(%rip), %rax
	movq	%rax, %rcx
	call	_ZNSt6vectorISt3mapINSt7__cxx1112basic_stringIcSt11char_traitsIcESaIcEEE5ValueSt4lessIS6_ESaISt4pairIKS6_S7_EEESaISE_EE4backEv
	movq	%rax, %rcx
	movq	16(%rbp), %rax
	movq	%rax, %rdx
	call	_ZNKSt3mapINSt7__cxx1112basic_stringIcSt11char_traitsIcESaIcEEE5ValueSt4lessIS5_ESaISt4pairIKS5_S6_EEE5countERSA_
	testq	%rax, %rax
	je	.L61
	movl	$1, %eax
	jmp	.L62
.L61:
	movl	$0, %eax
.L62:
	testb	%al, %al
	je	.L63
	leaq	_Z5stackB5cxx11(%rip), %rax
	movq	%rax, %rcx
	call	_ZNSt6vectorISt3mapINSt7__cxx1112basic_stringIcSt11char_traitsIcESaIcEEE5ValueSt4lessIS6_ESaISt4pairIKS6_S7_EEESaISE_EE4backEv
	movq	%rax, %rcx
	movq	16(%rbp), %rax
	movq	%rax, %rdx
	call	_ZNSt3mapINSt7__cxx1112basic_stringIcSt11char_traitsIcESaIcEEE5ValueSt4lessIS5_ESaISt4pairIKS5_S6_EEEixERSA_
	jmp	.L64
.L63:
	movq	16(%rbp), %rax
	leaq	_Z7globalsB5cxx11(%rip), %rcx
	movq	%rax, %rdx
	call	_ZNSt3mapINSt7__cxx1112basic_stringIcSt11char_traitsIcESaIcEEE5ValueSt4lessIS5_ESaISt4pairIKS5_S6_EEEixERSA_
.L64:
	addq	$32, %rsp
	popq	%rbp
	ret
	.seh_endproc
	.section	.text$_ZN5ValueaSERKS_,"x"
	.linkonce discard
	.align 2
	.globl	_ZN5ValueaSERKS_
	.def	_ZN5ValueaSERKS_;	.scl	2;	.type	32;	.endef
	.seh_proc	_ZN5ValueaSERKS_
_ZN5ValueaSERKS_:
.LFB3048:
	pushq	%rbp
	.seh_pushreg	%rbp
	movq	%rsp, %rbp
	.seh_setframe	%rbp, 0
	subq	$32, %rsp
	.seh_stackalloc	32
	.seh_endprologue
	movq	%rcx, 16(%rbp)
	movq	%rdx, 24(%rbp)
	movq	24(%rbp), %rax
	movl	(%rax), %edx
	movq	16(%rbp), %rax
	movl	%edx, (%rax)
	movq	24(%rbp), %rax
	movl	4(%rax), %edx
	movq	16(%rbp), %rax
	movl	%edx, 4(%rax)
	movq	24(%rbp), %rax
	movsd	8(%rax), %xmm0
	movq	16(%rbp), %rax
	movsd	%xmm0, 8(%rax)
	movq	24(%rbp), %rax
	leaq	16(%rax), %rdx
	movq	16(%rbp), %rax
	addq	$16, %rax
	movq	%rax, %rcx
	call	_ZNSt7__cxx1112basic_stringIcSt11char_traitsIcESaIcEEaSERKS4_
	movq	24(%rbp), %rax
	movq	48(%rax), %rdx
	movq	16(%rbp), %rax
	movq	%rdx, 48(%rax)
	movq	24(%rbp), %rax
	movq	56(%rax), %rdx
	movq	16(%rbp), %rax
	movq	%rdx, 56(%rax)
	movq	16(%rbp), %rax
	addq	$32, %rsp
	popq	%rbp
	ret
	.seh_endproc
	.text
	.globl	_Z6setVarNSt7__cxx1112basic_stringIcSt11char_traitsIcESaIcEEE5Value
	.def	_Z6setVarNSt7__cxx1112basic_stringIcSt11char_traitsIcESaIcEEE5Value;	.scl	2;	.type	32;	.endef
	.seh_proc	_Z6setVarNSt7__cxx1112basic_stringIcSt11char_traitsIcESaIcEEE5Value
_Z6setVarNSt7__cxx1112basic_stringIcSt11char_traitsIcESaIcEEE5Value:
.LFB3047:
	pushq	%rbp
	.seh_pushreg	%rbp
	movq	%rsp, %rbp
	.seh_setframe	%rbp, 0
	subq	$32, %rsp
	.seh_stackalloc	32
	.seh_endprologue
	movq	%rcx, 16(%rbp)
	movq	%rdx, 24(%rbp)
	leaq	_Z5stackB5cxx11(%rip), %rax
	movq	%rax, %rcx
	call	_ZNKSt6vectorISt3mapINSt7__cxx1112basic_stringIcSt11char_traitsIcESaIcEEE5ValueSt4lessIS6_ESaISt4pairIKS6_S7_EEESaISE_EE5emptyEv
	xorl	$1, %eax
	testb	%al, %al
	je	.L68
	leaq	_Z5stackB5cxx11(%rip), %rax
	movq	%rax, %rcx
	call	_ZNSt6vectorISt3mapINSt7__cxx1112basic_stringIcSt11char_traitsIcESaIcEEE5ValueSt4lessIS6_ESaISt4pairIKS6_S7_EEESaISE_EE4backEv
	movq	%rax, %rcx
	movq	16(%rbp), %rax
	movq	%rax, %rdx
	call	_ZNSt3mapINSt7__cxx1112basic_stringIcSt11char_traitsIcESaIcEEE5ValueSt4lessIS5_ESaISt4pairIKS5_S6_EEEixERSA_
	movq	%rax, %rcx
	movq	24(%rbp), %rax
	movq	%rax, %rdx
	call	_ZN5ValueaSERKS_
	jmp	.L70
.L68:
	movq	16(%rbp), %rax
	leaq	_Z7globalsB5cxx11(%rip), %rcx
	movq	%rax, %rdx
	call	_ZNSt3mapINSt7__cxx1112basic_stringIcSt11char_traitsIcESaIcEEE5ValueSt4lessIS5_ESaISt4pairIKS5_S6_EEEixERSA_
	movq	%rax, %rcx
	movq	24(%rbp), %rax
	movq	%rax, %rdx
	call	_ZN5ValueaSERKS_
.L70:
	nop
	addq	$32, %rsp
	popq	%rbp
	ret
	.seh_endproc
	.section	.text$_ZNSt3mapINSt7__cxx1112basic_stringIcSt11char_traitsIcESaIcEEE5ValueSt4lessIS5_ESaISt4pairIKS5_S6_EEED1Ev,"x"
	.linkonce discard
	.align 2
	.globl	_ZNSt3mapINSt7__cxx1112basic_stringIcSt11char_traitsIcESaIcEEE5ValueSt4lessIS5_ESaISt4pairIKS5_S6_EEED1Ev
	.def	_ZNSt3mapINSt7__cxx1112basic_stringIcSt11char_traitsIcESaIcEEE5ValueSt4lessIS5_ESaISt4pairIKS5_S6_EEED1Ev;	.scl	2;	.type	32;	.endef
	.seh_proc	_ZNSt3mapINSt7__cxx1112basic_stringIcSt11char_traitsIcESaIcEEE5ValueSt4lessIS5_ESaISt4pairIKS5_S6_EEED1Ev
_ZNSt3mapINSt7__cxx1112basic_stringIcSt11char_traitsIcESaIcEEE5ValueSt4lessIS5_ESaISt4pairIKS5_S6_EEED1Ev:
.LFB3052:
	pushq	%rbp
	.seh_pushreg	%rbp
	movq	%rsp, %rbp
	.seh_setframe	%rbp, 0
	subq	$32, %rsp
	.seh_stackalloc	32
	.seh_endprologue
	movq	%rcx, 16(%rbp)
	movq	16(%rbp), %rax
	movq	%rax, %rcx
	call	_ZNSt8_Rb_treeINSt7__cxx1112basic_stringIcSt11char_traitsIcESaIcEEESt4pairIKS5_5ValueESt10_Select1stIS9_ESt4lessIS5_ESaIS9_EED1Ev
	nop
	addq	$32, %rsp
	popq	%rbp
	ret
	.seh_endproc
	.text
	.globl	_Z10push_scopev
	.def	_Z10push_scopev;	.scl	2;	.type	32;	.endef
	.seh_proc	_Z10push_scopev
_Z10push_scopev:
.LFB3049:
	pushq	%rbp
	.seh_pushreg	%rbp
	pushq	%rbx
	.seh_pushreg	%rbx
	subq	$88, %rsp
	.seh_stackalloc	88
	leaq	80(%rsp), %rbp
	.seh_setframe	%rbp, 80
	.seh_endprologue
	pxor	%xmm0, %xmm0
	movups	%xmm0, -48(%rbp)
	movups	%xmm0, -32(%rbp)
	movups	%xmm0, -16(%rbp)
	leaq	-48(%rbp), %rax
	movq	%rax, %rcx
	call	_ZNSt3mapINSt7__cxx1112basic_stringIcSt11char_traitsIcESaIcEEE5ValueSt4lessIS5_ESaISt4pairIKS5_S6_EEEC1Ev
	leaq	-48(%rbp), %rax
	leaq	_Z5stackB5cxx11(%rip), %rcx
	movq	%rax, %rdx
.LEHB0:
	call	_ZNSt6vectorISt3mapINSt7__cxx1112basic_stringIcSt11char_traitsIcESaIcEEE5ValueSt4lessIS6_ESaISt4pairIKS6_S7_EEESaISE_EE9push_backEOSE_
.LEHE0:
	leaq	-48(%rbp), %rax
	movq	%rax, %rcx
	call	_ZNSt3mapINSt7__cxx1112basic_stringIcSt11char_traitsIcESaIcEEE5ValueSt4lessIS5_ESaISt4pairIKS5_S6_EEED1Ev
	jmp	.L75
.L74:
	movq	%rax, %rbx
	leaq	-48(%rbp), %rax
	movq	%rax, %rcx
	call	_ZNSt3mapINSt7__cxx1112basic_stringIcSt11char_traitsIcESaIcEEE5ValueSt4lessIS5_ESaISt4pairIKS5_S6_EEED1Ev
	movq	%rbx, %rax
	movq	%rax, %rcx
.LEHB1:
	call	_Unwind_Resume
	nop
.LEHE1:
.L75:
	addq	$88, %rsp
	popq	%rbx
	popq	%rbp
	ret
	.seh_handler	__gxx_personality_seh0, @unwind, @except
	.seh_handlerdata
.LLSDA3049:
	.byte	0xff
	.byte	0xff
	.byte	0x1
	.uleb128 .LLSDACSE3049-.LLSDACSB3049
.LLSDACSB3049:
	.uleb128 .LEHB0-.LFB3049
	.uleb128 .LEHE0-.LEHB0
	.uleb128 .L74-.LFB3049
	.uleb128 0
	.uleb128 .LEHB1-.LFB3049
	.uleb128 .LEHE1-.LEHB1
	.uleb128 0
	.uleb128 0
.LLSDACSE3049:
	.text
	.seh_endproc
	.globl	_Z9pop_scopev
	.def	_Z9pop_scopev;	.scl	2;	.type	32;	.endef
	.seh_proc	_Z9pop_scopev
_Z9pop_scopev:
.LFB3053:
	pushq	%rbp
	.seh_pushreg	%rbp
	movq	%rsp, %rbp
	.seh_setframe	%rbp, 0
	subq	$32, %rsp
	.seh_stackalloc	32
	.seh_endprologue
	leaq	_Z5stackB5cxx11(%rip), %rax
	movq	%rax, %rcx
	call	_ZNKSt6vectorISt3mapINSt7__cxx1112basic_stringIcSt11char_traitsIcESaIcEEE5ValueSt4lessIS6_ESaISt4pairIKS6_S7_EEESaISE_EE5emptyEv
	xorl	$1, %eax
	testb	%al, %al
	je	.L78
	leaq	_Z5stackB5cxx11(%rip), %rax
	movq	%rax, %rcx
	call	_ZNSt6vectorISt3mapINSt7__cxx1112basic_stringIcSt11char_traitsIcESaIcEEE5ValueSt4lessIS6_ESaISt4pairIKS6_S7_EEESaISE_EE8pop_backEv
.L78:
	nop
	addq	$32, %rsp
	popq	%rbp
	ret
	.seh_endproc
	.section	.text$_ZN5ValueD1Ev,"x"
	.linkonce discard
	.align 2
	.globl	_ZN5ValueD1Ev
	.def	_ZN5ValueD1Ev;	.scl	2;	.type	32;	.endef
	.seh_proc	_ZN5ValueD1Ev
_ZN5ValueD1Ev:
.LFB3057:
	pushq	%rbp
	.seh_pushreg	%rbp
	movq	%rsp, %rbp
	.seh_setframe	%rbp, 0
	subq	$32, %rsp
	.seh_stackalloc	32
	.seh_endprologue
	movq	%rcx, 16(%rbp)
	movq	16(%rbp), %rax
	addq	$16, %rax
	movq	%rax, %rcx
	call	_ZNSt7__cxx1112basic_stringIcSt11char_traitsIcESaIcEED1Ev
	nop
	addq	$32, %rsp
	popq	%rbp
	ret
	.seh_endproc
	.section	.text$_ZN5ValueaSEOS_,"x"
	.linkonce discard
	.align 2
	.globl	_ZN5ValueaSEOS_
	.def	_ZN5ValueaSEOS_;	.scl	2;	.type	32;	.endef
	.seh_proc	_ZN5ValueaSEOS_
_ZN5ValueaSEOS_:
.LFB3061:
	pushq	%rbp
	.seh_pushreg	%rbp
	movq	%rsp, %rbp
	.seh_setframe	%rbp, 0
	subq	$32, %rsp
	.seh_stackalloc	32
	.seh_endprologue
	movq	%rcx, 16(%rbp)
	movq	%rdx, 24(%rbp)
	movq	24(%rbp), %rax
	movl	(%rax), %edx
	movq	16(%rbp), %rax
	movl	%edx, (%rax)
	movq	24(%rbp), %rax
	movl	4(%rax), %edx
	movq	16(%rbp), %rax
	movl	%edx, 4(%rax)
	movq	24(%rbp), %rax
	movsd	8(%rax), %xmm0
	movq	16(%rbp), %rax
	movsd	%xmm0, 8(%rax)
	movq	24(%rbp), %rax
	leaq	16(%rax), %rdx
	movq	16(%rbp), %rax
	addq	$16, %rax
	movq	%rax, %rcx
	call	_ZNSt7__cxx1112basic_stringIcSt11char_traitsIcESaIcEEaSEOS4_
	movq	24(%rbp), %rax
	movq	48(%rax), %rdx
	movq	16(%rbp), %rax
	movq	%rdx, 48(%rax)
	movq	24(%rbp), %rax
	movq	56(%rax), %rdx
	movq	16(%rbp), %rax
	movq	%rdx, 56(%rax)
	movq	16(%rbp), %rax
	addq	$32, %rsp
	popq	%rbp
	ret
	.seh_endproc
	.section	.text$_ZN5ValueC1ERKS_,"x"
	.linkonce discard
	.align 2
	.globl	_ZN5ValueC1ERKS_
	.def	_ZN5ValueC1ERKS_;	.scl	2;	.type	32;	.endef
	.seh_proc	_ZN5ValueC1ERKS_
_ZN5ValueC1ERKS_:
.LFB3064:
	pushq	%rbp
	.seh_pushreg	%rbp
	movq	%rsp, %rbp
	.seh_setframe	%rbp, 0
	subq	$32, %rsp
	.seh_stackalloc	32
	.seh_endprologue
	movq	%rcx, 16(%rbp)
	movq	%rdx, 24(%rbp)
	movq	24(%rbp), %rax
	movl	(%rax), %edx
	movq	16(%rbp), %rax
	movl	%edx, (%rax)
	movq	24(%rbp), %rax
	movl	4(%rax), %edx
	movq	16(%rbp), %rax
	movl	%edx, 4(%rax)
	movq	24(%rbp), %rax
	movsd	8(%rax), %xmm0
	movq	16(%rbp), %rax
	movsd	%xmm0, 8(%rax)
	movq	16(%rbp), %rax
	addq	$16, %rax
	movq	24(%rbp), %rdx
	addq	$16, %rdx
	movq	%rax, %rcx
	call	_ZNSt7__cxx1112basic_stringIcSt11char_traitsIcESaIcEEC1ERKS4_
	movq	24(%rbp), %rax
	movq	48(%rax), %rdx
	movq	16(%rbp), %rax
	movq	%rdx, 48(%rax)
	movq	24(%rbp), %rax
	movq	56(%rax), %rdx
	movq	16(%rbp), %rax
	movq	%rdx, 56(%rax)
	nop
	addq	$32, %rsp
	popq	%rbp
	ret
	.seh_endproc
	.section .rdata,"dr"
.LC3:
	.ascii "--- SYSTEM BOOTING ---\0"
	.align 8
.LC4:
	.ascii "Initializing Titan Test Sequence...\0"
.LC5:
	.ascii "[PHASE 1] Array Sorting...\0"
.LC6:
	.ascii "data\0"
	.align 8
.LC11:
	.ascii "Unsorted Data Loaded. Commencing Sort...\0"
.LC12:
	.ascii "i\0"
.LC13:
	.ascii "j\0"
.LC14:
	.ascii "temp\0"
.LC16:
	.ascii "Sort Complete. Lowest Value:\0"
.LC17:
	.ascii "Highest Value:\0"
	.align 8
.LC18:
	.ascii "[PHASE 2] 3x3 Matrix Multiplication...\0"
.LC19:
	.ascii "matA\0"
.LC20:
	.ascii "matB\0"
.LC21:
	.ascii "resultMat\0"
.LC22:
	.ascii "k\0"
.LC23:
	.ascii "product\0"
	.align 8
.LC24:
	.ascii "Matrix Processed. Check Result Matrix Index [2][2]:\0"
	.align 8
.LC25:
	.ascii "[PHASE 3] OOP Grid Traversal...\0"
.LC26:
	.ascii "rover\0"
.LC27:
	.ascii "x\0"
.LC28:
	.ascii "y\0"
.LC29:
	.ascii "battery\0"
.LC30:
	.ascii "isActive\0"
.LC31:
	.ascii "target_x\0"
.LC32:
	.ascii "target_y\0"
	.align 8
.LC33:
	.ascii "Rover Deployed. Target acquired at [4, 3]\0"
.LC34:
	.ascii "DESTINATION REACHED.\0"
.LC35:
	.ascii "CRITICAL BATTERY. HALTING.\0"
.LC36:
	.ascii "Moved X. Current X:\0"
.LC37:
	.ascii "Moved Y. Current Y:\0"
.LC38:
	.ascii "Final Battery Level:\0"
	.align 8
.LC39:
	.ascii "--- TITAN SEQUENCE COMPLETE ---\0"
	.text
	.globl	main
	.def	main;	.scl	2;	.type	32;	.endef
	.seh_proc	main
main:
.LFB3054:
	pushq	%rbp
	.seh_pushreg	%rbp
	pushq	%rdi
	.seh_pushreg	%rdi
	pushq	%rsi
	.seh_pushreg	%rsi
	pushq	%rbx
	.seh_pushreg	%rbx
	movl	$13096, %eax
	call	___chkstk_ms
	subq	%rax, %rsp
	.seh_stackalloc	13096
	leaq	128(%rsp), %rbp
	.seh_setframe	%rbp, 128
	movups	%xmm6, 12944(%rbp)
	.seh_savexmm	%xmm6, 13072
	.seh_endprologue
	call	__main
	leaq	15(%rbp), %rax
	movq	%rax, 12936(%rbp)
	nop
	nop
	leaq	15(%rbp), %rcx
	leaq	.LC3(%rip), %rdx
	leaq	-32(%rbp), %rax
	movq	%rcx, %r8
	movq	%rax, %rcx
.LEHB2:
	call	_ZNSt7__cxx1112basic_stringIcSt11char_traitsIcESaIcEEC1IS3_EEPKcRKS3_
.LEHE2:
	leaq	-32(%rbp), %rdx
	leaq	-96(%rbp), %rax
	movq	%rax, %rcx
.LEHB3:
	call	_ZN5ValueC1ENSt7__cxx1112basic_stringIcSt11char_traitsIcESaIcEEE
.LEHE3:
	leaq	-96(%rbp), %rax
	movq	%rax, %rcx
.LEHB4:
	call	_ZN5Value5printEv
.LEHE4:
	leaq	-96(%rbp), %rax
	movq	%rax, %rcx
	call	_ZN5ValueD1Ev
	leaq	-32(%rbp), %rax
	movq	%rax, %rcx
	call	_ZNSt7__cxx1112basic_stringIcSt11char_traitsIcESaIcEED1Ev
	leaq	15(%rbp), %rax
	movq	%rax, %rcx
	call	_ZNSt15__new_allocatorIcED2Ev
	nop
	movq	.refptr._ZSt4endlIcSt11char_traitsIcEERSt13basic_ostreamIT_T0_ES6_(%rip), %rdx
	movq	.refptr._ZSt4cout(%rip), %rax
	movq	%rax, %rcx
.LEHB5:
	call	_ZNSolsEPFRSoS_E
.LEHE5:
	leaq	127(%rbp), %rax
	movq	%rax, 12928(%rbp)
	nop
	nop
	leaq	127(%rbp), %rcx
	leaq	.LC4(%rip), %rdx
	leaq	80(%rbp), %rax
	movq	%rcx, %r8
	movq	%rax, %rcx
.LEHB6:
	call	_ZNSt7__cxx1112basic_stringIcSt11char_traitsIcESaIcEEC1IS3_EEPKcRKS3_
.LEHE6:
	leaq	80(%rbp), %rdx
	leaq	16(%rbp), %rax
	movq	%rax, %rcx
.LEHB7:
	call	_ZN5ValueC1ENSt7__cxx1112basic_stringIcSt11char_traitsIcESaIcEEE
.LEHE7:
	leaq	16(%rbp), %rax
	movq	%rax, %rcx
.LEHB8:
	call	_ZN5Value5printEv
.LEHE8:
	leaq	16(%rbp), %rax
	movq	%rax, %rcx
	call	_ZN5ValueD1Ev
	leaq	80(%rbp), %rax
	movq	%rax, %rcx
	call	_ZNSt7__cxx1112basic_stringIcSt11char_traitsIcESaIcEED1Ev
	leaq	127(%rbp), %rax
	movq	%rax, %rcx
	call	_ZNSt15__new_allocatorIcED2Ev
	nop
	movq	.refptr._ZSt4endlIcSt11char_traitsIcEERSt13basic_ostreamIT_T0_ES6_(%rip), %rdx
	movq	.refptr._ZSt4cout(%rip), %rax
	movq	%rax, %rcx
.LEHB9:
	call	_ZNSolsEPFRSoS_E
.LEHE9:
	leaq	239(%rbp), %rax
	movq	%rax, 12920(%rbp)
	nop
	nop
	leaq	239(%rbp), %rcx
	leaq	.LC5(%rip), %rdx
	leaq	192(%rbp), %rax
	movq	%rcx, %r8
	movq	%rax, %rcx
.LEHB10:
	call	_ZNSt7__cxx1112basic_stringIcSt11char_traitsIcESaIcEEC1IS3_EEPKcRKS3_
.LEHE10:
	leaq	192(%rbp), %rdx
	leaq	128(%rbp), %rax
	movq	%rax, %rcx
.LEHB11:
	call	_ZN5ValueC1ENSt7__cxx1112basic_stringIcSt11char_traitsIcESaIcEEE
.LEHE11:
	leaq	128(%rbp), %rax
	movq	%rax, %rcx
.LEHB12:
	call	_ZN5Value5printEv
.LEHE12:
	leaq	128(%rbp), %rax
	movq	%rax, %rcx
	call	_ZN5ValueD1Ev
	leaq	192(%rbp), %rax
	movq	%rax, %rcx
	call	_ZNSt7__cxx1112basic_stringIcSt11char_traitsIcESaIcEED1Ev
	leaq	239(%rbp), %rax
	movq	%rax, %rcx
	call	_ZNSt15__new_allocatorIcED2Ev
	nop
	movq	.refptr._ZSt4endlIcSt11char_traitsIcEERSt13basic_ostreamIT_T0_ES6_(%rip), %rdx
	movq	.refptr._ZSt4cout(%rip), %rax
	movq	%rax, %rcx
.LEHB13:
	call	_ZNSolsEPFRSoS_E
.LEHE13:
	leaq	240(%rbp), %rax
	movl	$100, %edx
	movq	%rax, %rcx
	call	_ZN5ValueC1Ei
	leaq	351(%rbp), %rax
	movq	%rax, 12912(%rbp)
	nop
	nop
	leaq	351(%rbp), %rcx
	leaq	.LC6(%rip), %rdx
	leaq	304(%rbp), %rax
	movq	%rcx, %r8
	movq	%rax, %rcx
.LEHB14:
	call	_ZNSt7__cxx1112basic_stringIcSt11char_traitsIcESaIcEEC1IS3_EEPKcRKS3_
.LEHE14:
	leaq	304(%rbp), %rax
	movq	%rax, %rcx
.LEHB15:
	call	_Z6getVarNSt7__cxx1112basic_stringIcSt11char_traitsIcESaIcEEE
.LEHE15:
	movq	%rax, %rbx
	leaq	352(%rbp), %rax
	movl	$0, %edx
	movq	%rax, %rcx
	call	_ZN5ValueC1Ei
	leaq	352(%rbp), %rax
	movq	%rax, %rcx
	call	_ZN5Value6getValEv
	cvttsd2sil	%xmm0, %eax
	movl	%eax, %edx
	movq	%rbx, %rcx
.LEHB16:
	call	_ZN5ValueixEi
.LEHE16:
	movq	%rax, %rcx
	leaq	240(%rbp), %rax
	movq	%rax, %rdx
	call	_ZN5ValueaSEOS_
	leaq	352(%rbp), %rax
	movq	%rax, %rcx
	call	_ZN5ValueD1Ev
	leaq	304(%rbp), %rax
	movq	%rax, %rcx
	call	_ZNSt7__cxx1112basic_stringIcSt11char_traitsIcESaIcEED1Ev
	leaq	351(%rbp), %rax
	movq	%rax, %rcx
	call	_ZNSt15__new_allocatorIcED2Ev
	nop
	leaq	240(%rbp), %rax
	movq	%rax, %rcx
	call	_ZN5ValueD1Ev
	movsd	.LC7(%rip), %xmm0
	leaq	416(%rbp), %rax
	movapd	%xmm0, %xmm1
	movq	%rax, %rcx
	call	_ZN5ValueC1Ed
	leaq	527(%rbp), %rax
	movq	%rax, 12904(%rbp)
	nop
	nop
	leaq	527(%rbp), %rcx
	leaq	.LC6(%rip), %rdx
	leaq	480(%rbp), %rax
	movq	%rcx, %r8
	movq	%rax, %rcx
.LEHB17:
	call	_ZNSt7__cxx1112basic_stringIcSt11char_traitsIcESaIcEEC1IS3_EEPKcRKS3_
.LEHE17:
	leaq	480(%rbp), %rax
	movq	%rax, %rcx
.LEHB18:
	call	_Z6getVarNSt7__cxx1112basic_stringIcSt11char_traitsIcESaIcEEE
.LEHE18:
	movq	%rax, %rbx
	leaq	528(%rbp), %rax
	movl	$1, %edx
	movq	%rax, %rcx
	call	_ZN5ValueC1Ei
	leaq	528(%rbp), %rax
	movq	%rax, %rcx
	call	_ZN5Value6getValEv
	cvttsd2sil	%xmm0, %eax
	movl	%eax, %edx
	movq	%rbx, %rcx
.LEHB19:
	call	_ZN5ValueixEi
.LEHE19:
	movq	%rax, %rcx
	leaq	416(%rbp), %rax
	movq	%rax, %rdx
	call	_ZN5ValueaSEOS_
	leaq	528(%rbp), %rax
	movq	%rax, %rcx
	call	_ZN5ValueD1Ev
	leaq	480(%rbp), %rax
	movq	%rax, %rcx
	call	_ZNSt7__cxx1112basic_stringIcSt11char_traitsIcESaIcEED1Ev
	leaq	527(%rbp), %rax
	movq	%rax, %rcx
	call	_ZNSt15__new_allocatorIcED2Ev
	nop
	leaq	416(%rbp), %rax
	movq	%rax, %rcx
	call	_ZN5ValueD1Ev
	movsd	.LC8(%rip), %xmm0
	leaq	592(%rbp), %rax
	movapd	%xmm0, %xmm1
	movq	%rax, %rcx
	call	_ZN5ValueC1Ed
	leaq	703(%rbp), %rax
	movq	%rax, 12896(%rbp)
	nop
	nop
	leaq	703(%rbp), %rcx
	leaq	.LC6(%rip), %rdx
	leaq	656(%rbp), %rax
	movq	%rcx, %r8
	movq	%rax, %rcx
.LEHB20:
	call	_ZNSt7__cxx1112basic_stringIcSt11char_traitsIcESaIcEEC1IS3_EEPKcRKS3_
.LEHE20:
	leaq	656(%rbp), %rax
	movq	%rax, %rcx
.LEHB21:
	call	_Z6getVarNSt7__cxx1112basic_stringIcSt11char_traitsIcESaIcEEE
.LEHE21:
	movq	%rax, %rbx
	leaq	704(%rbp), %rax
	movl	$2, %edx
	movq	%rax, %rcx
	call	_ZN5ValueC1Ei
	leaq	704(%rbp), %rax
	movq	%rax, %rcx
	call	_ZN5Value6getValEv
	cvttsd2sil	%xmm0, %eax
	movl	%eax, %edx
	movq	%rbx, %rcx
.LEHB22:
	call	_ZN5ValueixEi
.LEHE22:
	movq	%rax, %rcx
	leaq	592(%rbp), %rax
	movq	%rax, %rdx
	call	_ZN5ValueaSEOS_
	leaq	704(%rbp), %rax
	movq	%rax, %rcx
	call	_ZN5ValueD1Ev
	leaq	656(%rbp), %rax
	movq	%rax, %rcx
	call	_ZNSt7__cxx1112basic_stringIcSt11char_traitsIcESaIcEED1Ev
	leaq	703(%rbp), %rax
	movq	%rax, %rcx
	call	_ZNSt15__new_allocatorIcED2Ev
	nop
	leaq	592(%rbp), %rax
	movq	%rax, %rcx
	call	_ZN5ValueD1Ev
	movsd	.LC9(%rip), %xmm0
	leaq	768(%rbp), %rax
	movapd	%xmm0, %xmm1
	movq	%rax, %rcx
	call	_ZN5ValueC1Ed
	leaq	879(%rbp), %rax
	movq	%rax, 12888(%rbp)
	nop
	nop
	leaq	879(%rbp), %rcx
	leaq	.LC6(%rip), %rdx
	leaq	832(%rbp), %rax
	movq	%rcx, %r8
	movq	%rax, %rcx
.LEHB23:
	call	_ZNSt7__cxx1112basic_stringIcSt11char_traitsIcESaIcEEC1IS3_EEPKcRKS3_
.LEHE23:
	leaq	832(%rbp), %rax
	movq	%rax, %rcx
.LEHB24:
	call	_Z6getVarNSt7__cxx1112basic_stringIcSt11char_traitsIcESaIcEEE
.LEHE24:
	movq	%rax, %rbx
	leaq	880(%rbp), %rax
	movl	$3, %edx
	movq	%rax, %rcx
	call	_ZN5ValueC1Ei
	leaq	880(%rbp), %rax
	movq	%rax, %rcx
	call	_ZN5Value6getValEv
	cvttsd2sil	%xmm0, %eax
	movl	%eax, %edx
	movq	%rbx, %rcx
.LEHB25:
	call	_ZN5ValueixEi
.LEHE25:
	movq	%rax, %rcx
	leaq	768(%rbp), %rax
	movq	%rax, %rdx
	call	_ZN5ValueaSEOS_
	leaq	880(%rbp), %rax
	movq	%rax, %rcx
	call	_ZN5ValueD1Ev
	leaq	832(%rbp), %rax
	movq	%rax, %rcx
	call	_ZNSt7__cxx1112basic_stringIcSt11char_traitsIcESaIcEED1Ev
	leaq	879(%rbp), %rax
	movq	%rax, %rcx
	call	_ZNSt15__new_allocatorIcED2Ev
	nop
	leaq	768(%rbp), %rax
	movq	%rax, %rcx
	call	_ZN5ValueD1Ev
	movsd	.LC10(%rip), %xmm0
	leaq	944(%rbp), %rax
	movapd	%xmm0, %xmm1
	movq	%rax, %rcx
	call	_ZN5ValueC1Ed
	leaq	1055(%rbp), %rax
	movq	%rax, 12880(%rbp)
	nop
	nop
	leaq	1055(%rbp), %rcx
	leaq	.LC6(%rip), %rdx
	leaq	1008(%rbp), %rax
	movq	%rcx, %r8
	movq	%rax, %rcx
.LEHB26:
	call	_ZNSt7__cxx1112basic_stringIcSt11char_traitsIcESaIcEEC1IS3_EEPKcRKS3_
.LEHE26:
	leaq	1008(%rbp), %rax
	movq	%rax, %rcx
.LEHB27:
	call	_Z6getVarNSt7__cxx1112basic_stringIcSt11char_traitsIcESaIcEEE
.LEHE27:
	movq	%rax, %rbx
	leaq	1056(%rbp), %rax
	movl	$4, %edx
	movq	%rax, %rcx
	call	_ZN5ValueC1Ei
	leaq	1056(%rbp), %rax
	movq	%rax, %rcx
	call	_ZN5Value6getValEv
	cvttsd2sil	%xmm0, %eax
	movl	%eax, %edx
	movq	%rbx, %rcx
.LEHB28:
	call	_ZN5ValueixEi
.LEHE28:
	movq	%rax, %rcx
	leaq	944(%rbp), %rax
	movq	%rax, %rdx
	call	_ZN5ValueaSEOS_
	leaq	1056(%rbp), %rax
	movq	%rax, %rcx
	call	_ZN5ValueD1Ev
	leaq	1008(%rbp), %rax
	movq	%rax, %rcx
	call	_ZNSt7__cxx1112basic_stringIcSt11char_traitsIcESaIcEED1Ev
	leaq	1055(%rbp), %rax
	movq	%rax, %rcx
	call	_ZNSt15__new_allocatorIcED2Ev
	nop
	leaq	944(%rbp), %rax
	movq	%rax, %rcx
	call	_ZN5ValueD1Ev
	leaq	1231(%rbp), %rax
	movq	%rax, 12872(%rbp)
	nop
	nop
	leaq	1231(%rbp), %rcx
	leaq	.LC11(%rip), %rdx
	leaq	1184(%rbp), %rax
	movq	%rcx, %r8
	movq	%rax, %rcx
.LEHB29:
	call	_ZNSt7__cxx1112basic_stringIcSt11char_traitsIcESaIcEEC1IS3_EEPKcRKS3_
.LEHE29:
	leaq	1184(%rbp), %rdx
	leaq	1120(%rbp), %rax
	movq	%rax, %rcx
.LEHB30:
	call	_ZN5ValueC1ENSt7__cxx1112basic_stringIcSt11char_traitsIcESaIcEEE
.LEHE30:
	leaq	1120(%rbp), %rax
	movq	%rax, %rcx
.LEHB31:
	call	_ZN5Value5printEv
.LEHE31:
	leaq	1120(%rbp), %rax
	movq	%rax, %rcx
	call	_ZN5ValueD1Ev
	leaq	1184(%rbp), %rax
	movq	%rax, %rcx
	call	_ZNSt7__cxx1112basic_stringIcSt11char_traitsIcESaIcEED1Ev
	leaq	1231(%rbp), %rax
	movq	%rax, %rcx
	call	_ZNSt15__new_allocatorIcED2Ev
	nop
	movq	.refptr._ZSt4endlIcSt11char_traitsIcEERSt13basic_ostreamIT_T0_ES6_(%rip), %rdx
	movq	.refptr._ZSt4cout(%rip), %rax
	movq	%rax, %rcx
.LEHB32:
	call	_ZNSolsEPFRSoS_E
.LEHE32:
	leaq	1232(%rbp), %rax
	movl	$0, %edx
	movq	%rax, %rcx
	call	_ZN5ValueC1Ei
	leaq	1343(%rbp), %rax
	movq	%rax, 12864(%rbp)
	nop
	nop
	leaq	1343(%rbp), %rcx
	leaq	.LC12(%rip), %rdx
	leaq	1296(%rbp), %rax
	movq	%rcx, %r8
	movq	%rax, %rcx
.LEHB33:
	call	_ZNSt7__cxx1112basic_stringIcSt11char_traitsIcESaIcEEC1IS3_EEPKcRKS3_
.LEHE33:
	leaq	1232(%rbp), %rdx
	leaq	1296(%rbp), %rax
	movq	%rax, %rcx
.LEHB34:
	call	_Z6setVarNSt7__cxx1112basic_stringIcSt11char_traitsIcESaIcEEE5Value
.LEHE34:
	leaq	1296(%rbp), %rax
	movq	%rax, %rcx
	call	_ZNSt7__cxx1112basic_stringIcSt11char_traitsIcESaIcEED1Ev
	leaq	1343(%rbp), %rax
	movq	%rax, %rcx
	call	_ZNSt15__new_allocatorIcED2Ev
	nop
	leaq	1232(%rbp), %rax
	movq	%rax, %rcx
	call	_ZN5ValueD1Ev
	jmp	.L84
.L88:
	leaq	1344(%rbp), %rax
	movl	$0, %edx
	movq	%rax, %rcx
	call	_ZN5ValueC1Ei
	leaq	1455(%rbp), %rax
	movq	%rax, 12856(%rbp)
	nop
	nop
	leaq	1455(%rbp), %rcx
	leaq	.LC13(%rip), %rdx
	leaq	1408(%rbp), %rax
	movq	%rcx, %r8
	movq	%rax, %rcx
.LEHB35:
	call	_ZNSt7__cxx1112basic_stringIcSt11char_traitsIcESaIcEEC1IS3_EEPKcRKS3_
.LEHE35:
	leaq	1344(%rbp), %rdx
	leaq	1408(%rbp), %rax
	movq	%rax, %rcx
.LEHB36:
	call	_Z6setVarNSt7__cxx1112basic_stringIcSt11char_traitsIcESaIcEEE5Value
.LEHE36:
	leaq	1408(%rbp), %rax
	movq	%rax, %rcx
	call	_ZNSt7__cxx1112basic_stringIcSt11char_traitsIcESaIcEED1Ev
	leaq	1455(%rbp), %rax
	movq	%rax, %rcx
	call	_ZNSt15__new_allocatorIcED2Ev
	nop
	leaq	1344(%rbp), %rax
	movq	%rax, %rcx
	call	_ZN5ValueD1Ev
	jmp	.L85
.L87:
	leaq	1503(%rbp), %rax
	movq	%rax, 12848(%rbp)
	nop
	nop
	leaq	1503(%rbp), %rcx
	leaq	.LC6(%rip), %rdx
	leaq	1456(%rbp), %rax
	movq	%rcx, %r8
	movq	%rax, %rcx
.LEHB37:
	call	_ZNSt7__cxx1112basic_stringIcSt11char_traitsIcESaIcEEC1IS3_EEPKcRKS3_
.LEHE37:
	leaq	1456(%rbp), %rax
	movq	%rax, %rcx
.LEHB38:
	call	_Z6getVarNSt7__cxx1112basic_stringIcSt11char_traitsIcESaIcEEE
.LEHE38:
	movq	%rax, %rbx
	leaq	1551(%rbp), %rax
	movq	%rax, 12840(%rbp)
	nop
	nop
	leaq	1551(%rbp), %rcx
	leaq	.LC12(%rip), %rdx
	leaq	1504(%rbp), %rax
	movq	%rcx, %r8
	movq	%rax, %rcx
.LEHB39:
	call	_ZNSt7__cxx1112basic_stringIcSt11char_traitsIcESaIcEEC1IS3_EEPKcRKS3_
.LEHE39:
	leaq	1504(%rbp), %rax
	movq	%rax, %rcx
.LEHB40:
	call	_Z6getVarNSt7__cxx1112basic_stringIcSt11char_traitsIcESaIcEEE
	movq	%rax, %rcx
	call	_ZN5Value6getValEv
	cvttsd2sil	%xmm0, %eax
	movl	%eax, %edx
	movq	%rbx, %rcx
	call	_ZN5ValueixEi
.LEHE40:
	movq	%rax, %rcx
	call	_ZN5Value6getValEv
	movapd	%xmm0, %xmm6
	leaq	1599(%rbp), %rax
	movq	%rax, 12832(%rbp)
	nop
	nop
	leaq	1599(%rbp), %rcx
	leaq	.LC6(%rip), %rdx
	leaq	1552(%rbp), %rax
	movq	%rcx, %r8
	movq	%rax, %rcx
.LEHB41:
	call	_ZNSt7__cxx1112basic_stringIcSt11char_traitsIcESaIcEEC1IS3_EEPKcRKS3_
.LEHE41:
	leaq	1552(%rbp), %rax
	movq	%rax, %rcx
.LEHB42:
	call	_Z6getVarNSt7__cxx1112basic_stringIcSt11char_traitsIcESaIcEEE
.LEHE42:
	movq	%rax, %rbx
	leaq	1647(%rbp), %rax
	movq	%rax, 12824(%rbp)
	nop
	nop
	leaq	1647(%rbp), %rcx
	leaq	.LC13(%rip), %rdx
	leaq	1600(%rbp), %rax
	movq	%rcx, %r8
	movq	%rax, %rcx
.LEHB43:
	call	_ZNSt7__cxx1112basic_stringIcSt11char_traitsIcESaIcEEC1IS3_EEPKcRKS3_
.LEHE43:
	leaq	1600(%rbp), %rax
	movq	%rax, %rcx
.LEHB44:
	call	_Z6getVarNSt7__cxx1112basic_stringIcSt11char_traitsIcESaIcEEE
	movq	%rax, %rcx
	call	_ZN5Value6getValEv
	cvttsd2sil	%xmm0, %eax
	movl	%eax, %edx
	movq	%rbx, %rcx
	call	_ZN5ValueixEi
.LEHE44:
	movq	%rax, %rcx
	call	_ZN5Value6getValEv
	movq	%xmm0, %rax
	movq	%rax, %xmm2
	comisd	%xmm6, %xmm2
	seta	%bl
	leaq	1600(%rbp), %rax
	movq	%rax, %rcx
	call	_ZNSt7__cxx1112basic_stringIcSt11char_traitsIcESaIcEED1Ev
	leaq	1647(%rbp), %rax
	movq	%rax, %rcx
	call	_ZNSt15__new_allocatorIcED2Ev
	nop
	leaq	1552(%rbp), %rax
	movq	%rax, %rcx
	call	_ZNSt7__cxx1112basic_stringIcSt11char_traitsIcESaIcEED1Ev
	leaq	1599(%rbp), %rax
	movq	%rax, %rcx
	call	_ZNSt15__new_allocatorIcED2Ev
	nop
	leaq	1504(%rbp), %rax
	movq	%rax, %rcx
	call	_ZNSt7__cxx1112basic_stringIcSt11char_traitsIcESaIcEED1Ev
	leaq	1551(%rbp), %rax
	movq	%rax, %rcx
	call	_ZNSt15__new_allocatorIcED2Ev
	nop
	leaq	1456(%rbp), %rax
	movq	%rax, %rcx
	call	_ZNSt7__cxx1112basic_stringIcSt11char_traitsIcESaIcEED1Ev
	leaq	1503(%rbp), %rax
	movq	%rax, %rcx
	call	_ZNSt15__new_allocatorIcED2Ev
	nop
	testb	%bl, %bl
	je	.L86
	leaq	1759(%rbp), %rax
	movq	%rax, 12816(%rbp)
	nop
	nop
	leaq	1759(%rbp), %rcx
	leaq	.LC6(%rip), %rdx
	leaq	1712(%rbp), %rax
	movq	%rcx, %r8
	movq	%rax, %rcx
.LEHB45:
	call	_ZNSt7__cxx1112basic_stringIcSt11char_traitsIcESaIcEEC1IS3_EEPKcRKS3_
.LEHE45:
	leaq	1712(%rbp), %rax
	movq	%rax, %rcx
.LEHB46:
	call	_Z6getVarNSt7__cxx1112basic_stringIcSt11char_traitsIcESaIcEEE
.LEHE46:
	movq	%rax, %rbx
	leaq	1807(%rbp), %rax
	movq	%rax, 12808(%rbp)
	nop
	nop
	leaq	1807(%rbp), %rcx
	leaq	.LC12(%rip), %rdx
	leaq	1760(%rbp), %rax
	movq	%rcx, %r8
	movq	%rax, %rcx
.LEHB47:
	call	_ZNSt7__cxx1112basic_stringIcSt11char_traitsIcESaIcEEC1IS3_EEPKcRKS3_
.LEHE47:
	leaq	1760(%rbp), %rax
	movq	%rax, %rcx
.LEHB48:
	call	_Z6getVarNSt7__cxx1112basic_stringIcSt11char_traitsIcESaIcEEE
	movq	%rax, %rcx
	call	_ZN5Value6getValEv
	cvttsd2sil	%xmm0, %eax
	movl	%eax, %edx
	movq	%rbx, %rcx
	call	_ZN5ValueixEi
	movq	%rax, %rdx
	leaq	1648(%rbp), %rax
	movq	%rax, %rcx
	call	_ZN5ValueC1ERKS_
.LEHE48:
	leaq	1855(%rbp), %rax
	movq	%rax, 12800(%rbp)
	nop
	nop
	leaq	1855(%rbp), %rcx
	leaq	.LC14(%rip), %rdx
	leaq	1808(%rbp), %rax
	movq	%rcx, %r8
	movq	%rax, %rcx
.LEHB49:
	call	_ZNSt7__cxx1112basic_stringIcSt11char_traitsIcESaIcEEC1IS3_EEPKcRKS3_
.LEHE49:
	leaq	1648(%rbp), %rdx
	leaq	1808(%rbp), %rax
	movq	%rax, %rcx
.LEHB50:
	call	_Z6setVarNSt7__cxx1112basic_stringIcSt11char_traitsIcESaIcEEE5Value
.LEHE50:
	leaq	1808(%rbp), %rax
	movq	%rax, %rcx
	call	_ZNSt7__cxx1112basic_stringIcSt11char_traitsIcESaIcEED1Ev
	leaq	1855(%rbp), %rax
	movq	%rax, %rcx
	call	_ZNSt15__new_allocatorIcED2Ev
	nop
	leaq	1648(%rbp), %rax
	movq	%rax, %rcx
	call	_ZN5ValueD1Ev
	leaq	1760(%rbp), %rax
	movq	%rax, %rcx
	call	_ZNSt7__cxx1112basic_stringIcSt11char_traitsIcESaIcEED1Ev
	leaq	1807(%rbp), %rax
	movq	%rax, %rcx
	call	_ZNSt15__new_allocatorIcED2Ev
	nop
	leaq	1712(%rbp), %rax
	movq	%rax, %rcx
	call	_ZNSt7__cxx1112basic_stringIcSt11char_traitsIcESaIcEED1Ev
	leaq	1759(%rbp), %rax
	movq	%rax, %rcx
	call	_ZNSt15__new_allocatorIcED2Ev
	nop
	leaq	1903(%rbp), %rax
	movq	%rax, 12792(%rbp)
	nop
	nop
	leaq	1903(%rbp), %rcx
	leaq	.LC6(%rip), %rdx
	leaq	1856(%rbp), %rax
	movq	%rcx, %r8
	movq	%rax, %rcx
.LEHB51:
	call	_ZNSt7__cxx1112basic_stringIcSt11char_traitsIcESaIcEEC1IS3_EEPKcRKS3_
.LEHE51:
	leaq	1856(%rbp), %rax
	movq	%rax, %rcx
.LEHB52:
	call	_Z6getVarNSt7__cxx1112basic_stringIcSt11char_traitsIcESaIcEEE
.LEHE52:
	movq	%rax, %rbx
	leaq	1951(%rbp), %rax
	movq	%rax, 12784(%rbp)
	nop
	nop
	leaq	1951(%rbp), %rcx
	leaq	.LC13(%rip), %rdx
	leaq	1904(%rbp), %rax
	movq	%rcx, %r8
	movq	%rax, %rcx
.LEHB53:
	call	_ZNSt7__cxx1112basic_stringIcSt11char_traitsIcESaIcEEC1IS3_EEPKcRKS3_
.LEHE53:
	leaq	1904(%rbp), %rax
	movq	%rax, %rcx
.LEHB54:
	call	_Z6getVarNSt7__cxx1112basic_stringIcSt11char_traitsIcESaIcEEE
	movq	%rax, %rcx
	call	_ZN5Value6getValEv
	cvttsd2sil	%xmm0, %eax
	movl	%eax, %edx
	movq	%rbx, %rcx
	call	_ZN5ValueixEi
.LEHE54:
	movq	%rax, %rbx
	leaq	1999(%rbp), %rax
	movq	%rax, 12776(%rbp)
	nop
	nop
	leaq	1999(%rbp), %rcx
	leaq	.LC6(%rip), %rdx
	leaq	1952(%rbp), %rax
	movq	%rcx, %r8
	movq	%rax, %rcx
.LEHB55:
	call	_ZNSt7__cxx1112basic_stringIcSt11char_traitsIcESaIcEEC1IS3_EEPKcRKS3_
.LEHE55:
	leaq	1952(%rbp), %rax
	movq	%rax, %rcx
.LEHB56:
	call	_Z6getVarNSt7__cxx1112basic_stringIcSt11char_traitsIcESaIcEEE
.LEHE56:
	movq	%rax, %rsi
	leaq	2047(%rbp), %rax
	movq	%rax, 12768(%rbp)
	nop
	nop
	leaq	2047(%rbp), %rcx
	leaq	.LC12(%rip), %rdx
	leaq	2000(%rbp), %rax
	movq	%rcx, %r8
	movq	%rax, %rcx
.LEHB57:
	call	_ZNSt7__cxx1112basic_stringIcSt11char_traitsIcESaIcEEC1IS3_EEPKcRKS3_
.LEHE57:
	leaq	2000(%rbp), %rax
	movq	%rax, %rcx
.LEHB58:
	call	_Z6getVarNSt7__cxx1112basic_stringIcSt11char_traitsIcESaIcEEE
	movq	%rax, %rcx
	call	_ZN5Value6getValEv
	cvttsd2sil	%xmm0, %eax
	movl	%eax, %edx
	movq	%rsi, %rcx
	call	_ZN5ValueixEi
	movq	%rbx, %rdx
	movq	%rax, %rcx
	call	_ZN5ValueaSERKS_
.LEHE58:
	leaq	2000(%rbp), %rax
	movq	%rax, %rcx
	call	_ZNSt7__cxx1112basic_stringIcSt11char_traitsIcESaIcEED1Ev
	leaq	2047(%rbp), %rax
	movq	%rax, %rcx
	call	_ZNSt15__new_allocatorIcED2Ev
	nop
	leaq	1952(%rbp), %rax
	movq	%rax, %rcx
	call	_ZNSt7__cxx1112basic_stringIcSt11char_traitsIcESaIcEED1Ev
	leaq	1999(%rbp), %rax
	movq	%rax, %rcx
	call	_ZNSt15__new_allocatorIcED2Ev
	nop
	leaq	1904(%rbp), %rax
	movq	%rax, %rcx
	call	_ZNSt7__cxx1112basic_stringIcSt11char_traitsIcESaIcEED1Ev
	leaq	1951(%rbp), %rax
	movq	%rax, %rcx
	call	_ZNSt15__new_allocatorIcED2Ev
	nop
	leaq	1856(%rbp), %rax
	movq	%rax, %rcx
	call	_ZNSt7__cxx1112basic_stringIcSt11char_traitsIcESaIcEED1Ev
	leaq	1903(%rbp), %rax
	movq	%rax, %rcx
	call	_ZNSt15__new_allocatorIcED2Ev
	nop
	leaq	2095(%rbp), %rax
	movq	%rax, 12760(%rbp)
	nop
	nop
	leaq	2095(%rbp), %rcx
	leaq	.LC14(%rip), %rdx
	leaq	2048(%rbp), %rax
	movq	%rcx, %r8
	movq	%rax, %rcx
.LEHB59:
	call	_ZNSt7__cxx1112basic_stringIcSt11char_traitsIcESaIcEEC1IS3_EEPKcRKS3_
.LEHE59:
	leaq	2048(%rbp), %rax
	movq	%rax, %rcx
.LEHB60:
	call	_Z6getVarNSt7__cxx1112basic_stringIcSt11char_traitsIcESaIcEEE
.LEHE60:
	movq	%rax, %rbx
	leaq	2143(%rbp), %rax
	movq	%rax, 12752(%rbp)
	nop
	nop
	leaq	2143(%rbp), %rcx
	leaq	.LC6(%rip), %rdx
	leaq	2096(%rbp), %rax
	movq	%rcx, %r8
	movq	%rax, %rcx
.LEHB61:
	call	_ZNSt7__cxx1112basic_stringIcSt11char_traitsIcESaIcEEC1IS3_EEPKcRKS3_
.LEHE61:
	leaq	2096(%rbp), %rax
	movq	%rax, %rcx
.LEHB62:
	call	_Z6getVarNSt7__cxx1112basic_stringIcSt11char_traitsIcESaIcEEE
.LEHE62:
	movq	%rax, %rsi
	leaq	2191(%rbp), %rax
	movq	%rax, 12744(%rbp)
	nop
	nop
	leaq	2191(%rbp), %rcx
	leaq	.LC13(%rip), %rdx
	leaq	2144(%rbp), %rax
	movq	%rcx, %r8
	movq	%rax, %rcx
.LEHB63:
	call	_ZNSt7__cxx1112basic_stringIcSt11char_traitsIcESaIcEEC1IS3_EEPKcRKS3_
.LEHE63:
	leaq	2144(%rbp), %rax
	movq	%rax, %rcx
.LEHB64:
	call	_Z6getVarNSt7__cxx1112basic_stringIcSt11char_traitsIcESaIcEEE
	movq	%rax, %rcx
	call	_ZN5Value6getValEv
	cvttsd2sil	%xmm0, %eax
	movl	%eax, %edx
	movq	%rsi, %rcx
	call	_ZN5ValueixEi
	movq	%rbx, %rdx
	movq	%rax, %rcx
	call	_ZN5ValueaSERKS_
.LEHE64:
	leaq	2144(%rbp), %rax
	movq	%rax, %rcx
	call	_ZNSt7__cxx1112basic_stringIcSt11char_traitsIcESaIcEED1Ev
	leaq	2191(%rbp), %rax
	movq	%rax, %rcx
	call	_ZNSt15__new_allocatorIcED2Ev
	nop
	leaq	2096(%rbp), %rax
	movq	%rax, %rcx
	call	_ZNSt7__cxx1112basic_stringIcSt11char_traitsIcESaIcEED1Ev
	leaq	2143(%rbp), %rax
	movq	%rax, %rcx
	call	_ZNSt15__new_allocatorIcED2Ev
	nop
	leaq	2048(%rbp), %rax
	movq	%rax, %rcx
	call	_ZNSt7__cxx1112basic_stringIcSt11char_traitsIcESaIcEED1Ev
	leaq	2095(%rbp), %rax
	movq	%rax, %rcx
	call	_ZNSt15__new_allocatorIcED2Ev
	nop
.L86:
	leaq	2303(%rbp), %rax
	movq	%rax, 12736(%rbp)
	nop
	nop
	leaq	2303(%rbp), %rcx
	leaq	.LC13(%rip), %rdx
	leaq	2256(%rbp), %rax
	movq	%rcx, %r8
	movq	%rax, %rcx
.LEHB65:
	call	_ZNSt7__cxx1112basic_stringIcSt11char_traitsIcESaIcEEC1IS3_EEPKcRKS3_
.LEHE65:
	leaq	2256(%rbp), %rax
	movq	%rax, %rcx
.LEHB66:
	call	_Z6getVarNSt7__cxx1112basic_stringIcSt11char_traitsIcESaIcEEE
.LEHE66:
	movq	%rax, %rcx
	call	_ZN5Value6getValEv
	movsd	.LC15(%rip), %xmm1
	addsd	%xmm1, %xmm0
	leaq	2192(%rbp), %rax
	movapd	%xmm0, %xmm1
	movq	%rax, %rcx
	call	_ZN5ValueC1Ed
	leaq	2351(%rbp), %rax
	movq	%rax, 12728(%rbp)
	nop
	nop
	leaq	2351(%rbp), %rcx
	leaq	.LC13(%rip), %rdx
	leaq	2304(%rbp), %rax
	movq	%rcx, %r8
	movq	%rax, %rcx
.LEHB67:
	call	_ZNSt7__cxx1112basic_stringIcSt11char_traitsIcESaIcEEC1IS3_EEPKcRKS3_
.LEHE67:
	leaq	2192(%rbp), %rdx
	leaq	2304(%rbp), %rax
	movq	%rax, %rcx
.LEHB68:
	call	_Z6setVarNSt7__cxx1112basic_stringIcSt11char_traitsIcESaIcEEE5Value
.LEHE68:
	leaq	2304(%rbp), %rax
	movq	%rax, %rcx
	call	_ZNSt7__cxx1112basic_stringIcSt11char_traitsIcESaIcEED1Ev
	leaq	2351(%rbp), %rax
	movq	%rax, %rcx
	call	_ZNSt15__new_allocatorIcED2Ev
	nop
	leaq	2192(%rbp), %rax
	movq	%rax, %rcx
	call	_ZN5ValueD1Ev
	leaq	2256(%rbp), %rax
	movq	%rax, %rcx
	call	_ZNSt7__cxx1112basic_stringIcSt11char_traitsIcESaIcEED1Ev
	leaq	2303(%rbp), %rax
	movq	%rax, %rcx
	call	_ZNSt15__new_allocatorIcED2Ev
	nop
.L85:
	leaq	2399(%rbp), %rax
	movq	%rax, 12720(%rbp)
	nop
	nop
	leaq	2399(%rbp), %rcx
	leaq	.LC13(%rip), %rdx
	leaq	2352(%rbp), %rax
	movq	%rcx, %r8
	movq	%rax, %rcx
.LEHB69:
	call	_ZNSt7__cxx1112basic_stringIcSt11char_traitsIcESaIcEEC1IS3_EEPKcRKS3_
.LEHE69:
	leaq	2352(%rbp), %rax
	movq	%rax, %rcx
.LEHB70:
	call	_Z6getVarNSt7__cxx1112basic_stringIcSt11char_traitsIcESaIcEEE
.LEHE70:
	movq	%rax, %rcx
	call	_ZN5Value6getValEv
	movapd	%xmm0, %xmm6
	leaq	2400(%rbp), %rax
	movl	$4, %edx
	movq	%rax, %rcx
	call	_ZN5ValueC1Ei
	leaq	2400(%rbp), %rax
	movq	%rax, %rcx
	call	_ZN5Value6getValEv
	movq	%xmm0, %rax
	movq	%rax, %xmm3
	comisd	%xmm6, %xmm3
	setnb	%bl
	leaq	2400(%rbp), %rax
	movq	%rax, %rcx
	call	_ZN5ValueD1Ev
	leaq	2352(%rbp), %rax
	movq	%rax, %rcx
	call	_ZNSt7__cxx1112basic_stringIcSt11char_traitsIcESaIcEED1Ev
	leaq	2399(%rbp), %rax
	movq	%rax, %rcx
	call	_ZNSt15__new_allocatorIcED2Ev
	nop
	testb	%bl, %bl
	jne	.L87
	leaq	2575(%rbp), %rax
	movq	%rax, 12712(%rbp)
	nop
	nop
	leaq	2575(%rbp), %rcx
	leaq	.LC12(%rip), %rdx
	leaq	2528(%rbp), %rax
	movq	%rcx, %r8
	movq	%rax, %rcx
.LEHB71:
	call	_ZNSt7__cxx1112basic_stringIcSt11char_traitsIcESaIcEEC1IS3_EEPKcRKS3_
.LEHE71:
	leaq	2528(%rbp), %rax
	movq	%rax, %rcx
.LEHB72:
	call	_Z6getVarNSt7__cxx1112basic_stringIcSt11char_traitsIcESaIcEEE
.LEHE72:
	movq	%rax, %rcx
	call	_ZN5Value6getValEv
	movsd	.LC15(%rip), %xmm1
	addsd	%xmm1, %xmm0
	leaq	2464(%rbp), %rax
	movapd	%xmm0, %xmm1
	movq	%rax, %rcx
	call	_ZN5ValueC1Ed
	leaq	2623(%rbp), %rax
	movq	%rax, 12704(%rbp)
	nop
	nop
	leaq	2623(%rbp), %rcx
	leaq	.LC12(%rip), %rdx
	leaq	2576(%rbp), %rax
	movq	%rcx, %r8
	movq	%rax, %rcx
.LEHB73:
	call	_ZNSt7__cxx1112basic_stringIcSt11char_traitsIcESaIcEEC1IS3_EEPKcRKS3_
.LEHE73:
	leaq	2464(%rbp), %rdx
	leaq	2576(%rbp), %rax
	movq	%rax, %rcx
.LEHB74:
	call	_Z6setVarNSt7__cxx1112basic_stringIcSt11char_traitsIcESaIcEEE5Value
.LEHE74:
	leaq	2576(%rbp), %rax
	movq	%rax, %rcx
	call	_ZNSt7__cxx1112basic_stringIcSt11char_traitsIcESaIcEED1Ev
	leaq	2623(%rbp), %rax
	movq	%rax, %rcx
	call	_ZNSt15__new_allocatorIcED2Ev
	nop
	leaq	2464(%rbp), %rax
	movq	%rax, %rcx
	call	_ZN5ValueD1Ev
	leaq	2528(%rbp), %rax
	movq	%rax, %rcx
	call	_ZNSt7__cxx1112basic_stringIcSt11char_traitsIcESaIcEED1Ev
	leaq	2575(%rbp), %rax
	movq	%rax, %rcx
	call	_ZNSt15__new_allocatorIcED2Ev
	nop
.L84:
	leaq	2671(%rbp), %rax
	movq	%rax, 12696(%rbp)
	nop
	nop
	leaq	2671(%rbp), %rcx
	leaq	.LC12(%rip), %rdx
	leaq	2624(%rbp), %rax
	movq	%rcx, %r8
	movq	%rax, %rcx
.LEHB75:
	call	_ZNSt7__cxx1112basic_stringIcSt11char_traitsIcESaIcEEC1IS3_EEPKcRKS3_
.LEHE75:
	leaq	2624(%rbp), %rax
	movq	%rax, %rcx
.LEHB76:
	call	_Z6getVarNSt7__cxx1112basic_stringIcSt11char_traitsIcESaIcEEE
.LEHE76:
	movq	%rax, %rcx
	call	_ZN5Value6getValEv
	movapd	%xmm0, %xmm6
	leaq	2672(%rbp), %rax
	movl	$4, %edx
	movq	%rax, %rcx
	call	_ZN5ValueC1Ei
	leaq	2672(%rbp), %rax
	movq	%rax, %rcx
	call	_ZN5Value6getValEv
	movq	%xmm0, %rax
	movq	%rax, %xmm4
	comisd	%xmm6, %xmm4
	setnb	%bl
	leaq	2672(%rbp), %rax
	movq	%rax, %rcx
	call	_ZN5ValueD1Ev
	leaq	2624(%rbp), %rax
	movq	%rax, %rcx
	call	_ZNSt7__cxx1112basic_stringIcSt11char_traitsIcESaIcEED1Ev
	leaq	2671(%rbp), %rax
	movq	%rax, %rcx
	call	_ZNSt15__new_allocatorIcED2Ev
	nop
	testb	%bl, %bl
	jne	.L88
	leaq	2847(%rbp), %rax
	movq	%rax, 12688(%rbp)
	nop
	nop
	leaq	2847(%rbp), %rcx
	leaq	.LC16(%rip), %rdx
	leaq	2800(%rbp), %rax
	movq	%rcx, %r8
	movq	%rax, %rcx
.LEHB77:
	call	_ZNSt7__cxx1112basic_stringIcSt11char_traitsIcESaIcEEC1IS3_EEPKcRKS3_
.LEHE77:
	leaq	2800(%rbp), %rdx
	leaq	2736(%rbp), %rax
	movq	%rax, %rcx
.LEHB78:
	call	_ZN5ValueC1ENSt7__cxx1112basic_stringIcSt11char_traitsIcESaIcEEE
.LEHE78:
	leaq	2736(%rbp), %rax
	movq	%rax, %rcx
.LEHB79:
	call	_ZN5Value5printEv
.LEHE79:
	leaq	2736(%rbp), %rax
	movq	%rax, %rcx
	call	_ZN5ValueD1Ev
	leaq	2800(%rbp), %rax
	movq	%rax, %rcx
	call	_ZNSt7__cxx1112basic_stringIcSt11char_traitsIcESaIcEED1Ev
	leaq	2847(%rbp), %rax
	movq	%rax, %rcx
	call	_ZNSt15__new_allocatorIcED2Ev
	nop
	movq	.refptr._ZSt4endlIcSt11char_traitsIcEERSt13basic_ostreamIT_T0_ES6_(%rip), %rdx
	movq	.refptr._ZSt4cout(%rip), %rax
	movq	%rax, %rcx
.LEHB80:
	call	_ZNSolsEPFRSoS_E
.LEHE80:
	leaq	2895(%rbp), %rax
	movq	%rax, 12680(%rbp)
	nop
	nop
	leaq	2895(%rbp), %rcx
	leaq	.LC6(%rip), %rdx
	leaq	2848(%rbp), %rax
	movq	%rcx, %r8
	movq	%rax, %rcx
.LEHB81:
	call	_ZNSt7__cxx1112basic_stringIcSt11char_traitsIcESaIcEEC1IS3_EEPKcRKS3_
.LEHE81:
	leaq	2848(%rbp), %rax
	movq	%rax, %rcx
.LEHB82:
	call	_Z6getVarNSt7__cxx1112basic_stringIcSt11char_traitsIcESaIcEEE
.LEHE82:
	movq	%rax, %rbx
	leaq	2896(%rbp), %rax
	movl	$0, %edx
	movq	%rax, %rcx
	call	_ZN5ValueC1Ei
	leaq	2896(%rbp), %rax
	movq	%rax, %rcx
	call	_ZN5Value6getValEv
	cvttsd2sil	%xmm0, %eax
	movl	%eax, %edx
	movq	%rbx, %rcx
.LEHB83:
	call	_ZN5ValueixEi
	movq	%rax, %rcx
	call	_ZN5Value5printEv
.LEHE83:
	leaq	2896(%rbp), %rax
	movq	%rax, %rcx
	call	_ZN5ValueD1Ev
	leaq	2848(%rbp), %rax
	movq	%rax, %rcx
	call	_ZNSt7__cxx1112basic_stringIcSt11char_traitsIcESaIcEED1Ev
	leaq	2895(%rbp), %rax
	movq	%rax, %rcx
	call	_ZNSt15__new_allocatorIcED2Ev
	nop
	movq	.refptr._ZSt4endlIcSt11char_traitsIcEERSt13basic_ostreamIT_T0_ES6_(%rip), %rdx
	movq	.refptr._ZSt4cout(%rip), %rax
	movq	%rax, %rcx
.LEHB84:
	call	_ZNSolsEPFRSoS_E
.LEHE84:
	leaq	3071(%rbp), %rax
	movq	%rax, 12672(%rbp)
	nop
	nop
	leaq	3071(%rbp), %rcx
	leaq	.LC17(%rip), %rdx
	leaq	3024(%rbp), %rax
	movq	%rcx, %r8
	movq	%rax, %rcx
.LEHB85:
	call	_ZNSt7__cxx1112basic_stringIcSt11char_traitsIcESaIcEEC1IS3_EEPKcRKS3_
.LEHE85:
	leaq	3024(%rbp), %rdx
	leaq	2960(%rbp), %rax
	movq	%rax, %rcx
.LEHB86:
	call	_ZN5ValueC1ENSt7__cxx1112basic_stringIcSt11char_traitsIcESaIcEEE
.LEHE86:
	leaq	2960(%rbp), %rax
	movq	%rax, %rcx
.LEHB87:
	call	_ZN5Value5printEv
.LEHE87:
	leaq	2960(%rbp), %rax
	movq	%rax, %rcx
	call	_ZN5ValueD1Ev
	leaq	3024(%rbp), %rax
	movq	%rax, %rcx
	call	_ZNSt7__cxx1112basic_stringIcSt11char_traitsIcESaIcEED1Ev
	leaq	3071(%rbp), %rax
	movq	%rax, %rcx
	call	_ZNSt15__new_allocatorIcED2Ev
	nop
	movq	.refptr._ZSt4endlIcSt11char_traitsIcEERSt13basic_ostreamIT_T0_ES6_(%rip), %rdx
	movq	.refptr._ZSt4cout(%rip), %rax
	movq	%rax, %rcx
.LEHB88:
	call	_ZNSolsEPFRSoS_E
.LEHE88:
	leaq	3119(%rbp), %rax
	movq	%rax, 12664(%rbp)
	nop
	nop
	leaq	3119(%rbp), %rcx
	leaq	.LC6(%rip), %rdx
	leaq	3072(%rbp), %rax
	movq	%rcx, %r8
	movq	%rax, %rcx
.LEHB89:
	call	_ZNSt7__cxx1112basic_stringIcSt11char_traitsIcESaIcEEC1IS3_EEPKcRKS3_
.LEHE89:
	leaq	3072(%rbp), %rax
	movq	%rax, %rcx
.LEHB90:
	call	_Z6getVarNSt7__cxx1112basic_stringIcSt11char_traitsIcESaIcEEE
.LEHE90:
	movq	%rax, %rbx
	leaq	3120(%rbp), %rax
	movl	$4, %edx
	movq	%rax, %rcx
	call	_ZN5ValueC1Ei
	leaq	3120(%rbp), %rax
	movq	%rax, %rcx
	call	_ZN5Value6getValEv
	cvttsd2sil	%xmm0, %eax
	movl	%eax, %edx
	movq	%rbx, %rcx
.LEHB91:
	call	_ZN5ValueixEi
	movq	%rax, %rcx
	call	_ZN5Value5printEv
.LEHE91:
	leaq	3120(%rbp), %rax
	movq	%rax, %rcx
	call	_ZN5ValueD1Ev
	leaq	3072(%rbp), %rax
	movq	%rax, %rcx
	call	_ZNSt7__cxx1112basic_stringIcSt11char_traitsIcESaIcEED1Ev
	leaq	3119(%rbp), %rax
	movq	%rax, %rcx
	call	_ZNSt15__new_allocatorIcED2Ev
	nop
	movq	.refptr._ZSt4endlIcSt11char_traitsIcEERSt13basic_ostreamIT_T0_ES6_(%rip), %rdx
	movq	.refptr._ZSt4cout(%rip), %rax
	movq	%rax, %rcx
.LEHB92:
	call	_ZNSolsEPFRSoS_E
.LEHE92:
	leaq	3295(%rbp), %rax
	movq	%rax, 12656(%rbp)
	nop
	nop
	leaq	3295(%rbp), %rcx
	leaq	.LC18(%rip), %rdx
	leaq	3248(%rbp), %rax
	movq	%rcx, %r8
	movq	%rax, %rcx
.LEHB93:
	call	_ZNSt7__cxx1112basic_stringIcSt11char_traitsIcESaIcEEC1IS3_EEPKcRKS3_
.LEHE93:
	leaq	3248(%rbp), %rdx
	leaq	3184(%rbp), %rax
	movq	%rax, %rcx
.LEHB94:
	call	_ZN5ValueC1ENSt7__cxx1112basic_stringIcSt11char_traitsIcESaIcEEE
.LEHE94:
	leaq	3184(%rbp), %rax
	movq	%rax, %rcx
.LEHB95:
	call	_ZN5Value5printEv
.LEHE95:
	leaq	3184(%rbp), %rax
	movq	%rax, %rcx
	call	_ZN5ValueD1Ev
	leaq	3248(%rbp), %rax
	movq	%rax, %rcx
	call	_ZNSt7__cxx1112basic_stringIcSt11char_traitsIcESaIcEED1Ev
	leaq	3295(%rbp), %rax
	movq	%rax, %rcx
	call	_ZNSt15__new_allocatorIcED2Ev
	nop
	movq	.refptr._ZSt4endlIcSt11char_traitsIcEERSt13basic_ostreamIT_T0_ES6_(%rip), %rdx
	movq	.refptr._ZSt4cout(%rip), %rax
	movq	%rax, %rcx
.LEHB96:
	call	_ZNSolsEPFRSoS_E
.LEHE96:
	leaq	3296(%rbp), %rax
	movl	$0, %edx
	movq	%rax, %rcx
	call	_ZN5ValueC1Ei
	leaq	3407(%rbp), %rax
	movq	%rax, 12648(%rbp)
	nop
	nop
	leaq	3407(%rbp), %rcx
	leaq	.LC12(%rip), %rdx
	leaq	3360(%rbp), %rax
	movq	%rcx, %r8
	movq	%rax, %rcx
.LEHB97:
	call	_ZNSt7__cxx1112basic_stringIcSt11char_traitsIcESaIcEEC1IS3_EEPKcRKS3_
.LEHE97:
	leaq	3296(%rbp), %rdx
	leaq	3360(%rbp), %rax
	movq	%rax, %rcx
.LEHB98:
	call	_Z6setVarNSt7__cxx1112basic_stringIcSt11char_traitsIcESaIcEEE5Value
.LEHE98:
	leaq	3360(%rbp), %rax
	movq	%rax, %rcx
	call	_ZNSt7__cxx1112basic_stringIcSt11char_traitsIcESaIcEED1Ev
	leaq	3407(%rbp), %rax
	movq	%rax, %rcx
	call	_ZNSt15__new_allocatorIcED2Ev
	nop
	leaq	3296(%rbp), %rax
	movq	%rax, %rcx
	call	_ZN5ValueD1Ev
	jmp	.L89
.L92:
	leaq	3408(%rbp), %rax
	movl	$0, %edx
	movq	%rax, %rcx
	call	_ZN5ValueC1Ei
	leaq	3519(%rbp), %rax
	movq	%rax, 12640(%rbp)
	nop
	nop
	leaq	3519(%rbp), %rcx
	leaq	.LC13(%rip), %rdx
	leaq	3472(%rbp), %rax
	movq	%rcx, %r8
	movq	%rax, %rcx
.LEHB99:
	call	_ZNSt7__cxx1112basic_stringIcSt11char_traitsIcESaIcEEC1IS3_EEPKcRKS3_
.LEHE99:
	leaq	3408(%rbp), %rdx
	leaq	3472(%rbp), %rax
	movq	%rax, %rcx
.LEHB100:
	call	_Z6setVarNSt7__cxx1112basic_stringIcSt11char_traitsIcESaIcEEE5Value
.LEHE100:
	leaq	3472(%rbp), %rax
	movq	%rax, %rcx
	call	_ZNSt7__cxx1112basic_stringIcSt11char_traitsIcESaIcEED1Ev
	leaq	3519(%rbp), %rax
	movq	%rax, %rcx
	call	_ZNSt15__new_allocatorIcED2Ev
	nop
	leaq	3408(%rbp), %rax
	movq	%rax, %rcx
	call	_ZN5ValueD1Ev
	jmp	.L90
.L91:
	leaq	3631(%rbp), %rax
	movq	%rax, 12632(%rbp)
	nop
	nop
	leaq	3631(%rbp), %rcx
	leaq	.LC12(%rip), %rdx
	leaq	3584(%rbp), %rax
	movq	%rcx, %r8
	movq	%rax, %rcx
.LEHB101:
	call	_ZNSt7__cxx1112basic_stringIcSt11char_traitsIcESaIcEEC1IS3_EEPKcRKS3_
.LEHE101:
	leaq	3584(%rbp), %rax
	movq	%rax, %rcx
.LEHB102:
	call	_Z6getVarNSt7__cxx1112basic_stringIcSt11char_traitsIcESaIcEEE
.LEHE102:
	movq	%rax, %rcx
	call	_ZN5Value6getValEv
	movapd	%xmm0, %xmm6
	leaq	3679(%rbp), %rax
	movq	%rax, 12624(%rbp)
	nop
	nop
	leaq	3679(%rbp), %rcx
	leaq	.LC13(%rip), %rdx
	leaq	3632(%rbp), %rax
	movq	%rcx, %r8
	movq	%rax, %rcx
.LEHB103:
	call	_ZNSt7__cxx1112basic_stringIcSt11char_traitsIcESaIcEEC1IS3_EEPKcRKS3_
.LEHE103:
	leaq	3632(%rbp), %rax
	movq	%rax, %rcx
.LEHB104:
	call	_Z6getVarNSt7__cxx1112basic_stringIcSt11char_traitsIcESaIcEEE
.LEHE104:
	movq	%rax, %rcx
	call	_ZN5Value6getValEv
	addsd	%xmm6, %xmm0
	leaq	3520(%rbp), %rax
	movapd	%xmm0, %xmm1
	movq	%rax, %rcx
	call	_ZN5ValueC1Ed
	leaq	3727(%rbp), %rax
	movq	%rax, 12616(%rbp)
	nop
	nop
	leaq	3727(%rbp), %rcx
	leaq	.LC19(%rip), %rdx
	leaq	3680(%rbp), %rax
	movq	%rcx, %r8
	movq	%rax, %rcx
.LEHB105:
	call	_ZNSt7__cxx1112basic_stringIcSt11char_traitsIcESaIcEEC1IS3_EEPKcRKS3_
.LEHE105:
	leaq	3680(%rbp), %rax
	movq	%rax, %rcx
.LEHB106:
	call	_Z6getVarNSt7__cxx1112basic_stringIcSt11char_traitsIcESaIcEEE
.LEHE106:
	movq	%rax, %rbx
	leaq	3775(%rbp), %rax
	movq	%rax, 12608(%rbp)
	nop
	nop
	leaq	3775(%rbp), %rcx
	leaq	.LC12(%rip), %rdx
	leaq	3728(%rbp), %rax
	movq	%rcx, %r8
	movq	%rax, %rcx
.LEHB107:
	call	_ZNSt7__cxx1112basic_stringIcSt11char_traitsIcESaIcEEC1IS3_EEPKcRKS3_
.LEHE107:
	leaq	3728(%rbp), %rax
	movq	%rax, %rcx
.LEHB108:
	call	_Z6getVarNSt7__cxx1112basic_stringIcSt11char_traitsIcESaIcEEE
	movq	%rax, %rcx
	call	_ZN5Value6getValEv
	cvttsd2sil	%xmm0, %eax
	movl	%eax, %edx
	movq	%rbx, %rcx
	call	_ZN5ValueixEi
.LEHE108:
	movq	%rax, %rbx
	leaq	3823(%rbp), %rax
	movq	%rax, 12600(%rbp)
	nop
	nop
	leaq	3823(%rbp), %rcx
	leaq	.LC13(%rip), %rdx
	leaq	3776(%rbp), %rax
	movq	%rcx, %r8
	movq	%rax, %rcx
.LEHB109:
	call	_ZNSt7__cxx1112basic_stringIcSt11char_traitsIcESaIcEEC1IS3_EEPKcRKS3_
.LEHE109:
	leaq	3776(%rbp), %rax
	movq	%rax, %rcx
.LEHB110:
	call	_Z6getVarNSt7__cxx1112basic_stringIcSt11char_traitsIcESaIcEEE
	movq	%rax, %rcx
	call	_ZN5Value6getValEv
	cvttsd2sil	%xmm0, %eax
	movl	%eax, %edx
	movq	%rbx, %rcx
	call	_ZN5ValueixEi
.LEHE110:
	movq	%rax, %rcx
	leaq	3520(%rbp), %rax
	movq	%rax, %rdx
	call	_ZN5ValueaSEOS_
	leaq	3776(%rbp), %rax
	movq	%rax, %rcx
	call	_ZNSt7__cxx1112basic_stringIcSt11char_traitsIcESaIcEED1Ev
	leaq	3823(%rbp), %rax
	movq	%rax, %rcx
	call	_ZNSt15__new_allocatorIcED2Ev
	nop
	leaq	3728(%rbp), %rax
	movq	%rax, %rcx
	call	_ZNSt7__cxx1112basic_stringIcSt11char_traitsIcESaIcEED1Ev
	leaq	3775(%rbp), %rax
	movq	%rax, %rcx
	call	_ZNSt15__new_allocatorIcED2Ev
	nop
	leaq	3680(%rbp), %rax
	movq	%rax, %rcx
	call	_ZNSt7__cxx1112basic_stringIcSt11char_traitsIcESaIcEED1Ev
	leaq	3727(%rbp), %rax
	movq	%rax, %rcx
	call	_ZNSt15__new_allocatorIcED2Ev
	nop
	leaq	3520(%rbp), %rax
	movq	%rax, %rcx
	call	_ZN5ValueD1Ev
	leaq	3632(%rbp), %rax
	movq	%rax, %rcx
	call	_ZNSt7__cxx1112basic_stringIcSt11char_traitsIcESaIcEED1Ev
	leaq	3679(%rbp), %rax
	movq	%rax, %rcx
	call	_ZNSt15__new_allocatorIcED2Ev
	nop
	leaq	3584(%rbp), %rax
	movq	%rax, %rcx
	call	_ZNSt7__cxx1112basic_stringIcSt11char_traitsIcESaIcEED1Ev
	leaq	3631(%rbp), %rax
	movq	%rax, %rcx
	call	_ZNSt15__new_allocatorIcED2Ev
	nop
	leaq	3935(%rbp), %rax
	movq	%rax, 12592(%rbp)
	nop
	nop
	leaq	3935(%rbp), %rcx
	leaq	.LC12(%rip), %rdx
	leaq	3888(%rbp), %rax
	movq	%rcx, %r8
	movq	%rax, %rcx
.LEHB111:
	call	_ZNSt7__cxx1112basic_stringIcSt11char_traitsIcESaIcEEC1IS3_EEPKcRKS3_
.LEHE111:
	leaq	3888(%rbp), %rax
	movq	%rax, %rcx
.LEHB112:
	call	_Z6getVarNSt7__cxx1112basic_stringIcSt11char_traitsIcESaIcEEE
.LEHE112:
	movq	%rax, %rcx
	call	_ZN5Value6getValEv
	movapd	%xmm0, %xmm6
	leaq	3983(%rbp), %rax
	movq	%rax, 12584(%rbp)
	nop
	nop
	leaq	3983(%rbp), %rcx
	leaq	.LC13(%rip), %rdx
	leaq	3936(%rbp), %rax
	movq	%rcx, %r8
	movq	%rax, %rcx
.LEHB113:
	call	_ZNSt7__cxx1112basic_stringIcSt11char_traitsIcESaIcEEC1IS3_EEPKcRKS3_
.LEHE113:
	leaq	3936(%rbp), %rax
	movq	%rax, %rcx
.LEHB114:
	call	_Z6getVarNSt7__cxx1112basic_stringIcSt11char_traitsIcESaIcEEE
.LEHE114:
	movq	%rax, %rcx
	call	_ZN5Value6getValEv
	mulsd	%xmm6, %xmm0
	leaq	3824(%rbp), %rax
	movapd	%xmm0, %xmm1
	movq	%rax, %rcx
	call	_ZN5ValueC1Ed
	leaq	4031(%rbp), %rax
	movq	%rax, 12576(%rbp)
	nop
	nop
	leaq	4031(%rbp), %rcx
	leaq	.LC20(%rip), %rdx
	leaq	3984(%rbp), %rax
	movq	%rcx, %r8
	movq	%rax, %rcx
.LEHB115:
	call	_ZNSt7__cxx1112basic_stringIcSt11char_traitsIcESaIcEEC1IS3_EEPKcRKS3_
.LEHE115:
	leaq	3984(%rbp), %rax
	movq	%rax, %rcx
.LEHB116:
	call	_Z6getVarNSt7__cxx1112basic_stringIcSt11char_traitsIcESaIcEEE
.LEHE116:
	movq	%rax, %rbx
	leaq	4079(%rbp), %rax
	movq	%rax, 12568(%rbp)
	nop
	nop
	leaq	4079(%rbp), %rcx
	leaq	.LC12(%rip), %rdx
	leaq	4032(%rbp), %rax
	movq	%rcx, %r8
	movq	%rax, %rcx
.LEHB117:
	call	_ZNSt7__cxx1112basic_stringIcSt11char_traitsIcESaIcEEC1IS3_EEPKcRKS3_
.LEHE117:
	leaq	4032(%rbp), %rax
	movq	%rax, %rcx
.LEHB118:
	call	_Z6getVarNSt7__cxx1112basic_stringIcSt11char_traitsIcESaIcEEE
	movq	%rax, %rcx
	call	_ZN5Value6getValEv
	cvttsd2sil	%xmm0, %eax
	movl	%eax, %edx
	movq	%rbx, %rcx
	call	_ZN5ValueixEi
.LEHE118:
	movq	%rax, %rbx
	leaq	4127(%rbp), %rax
	movq	%rax, 12560(%rbp)
	nop
	nop
	leaq	4127(%rbp), %rcx
	leaq	.LC13(%rip), %rdx
	leaq	4080(%rbp), %rax
	movq	%rcx, %r8
	movq	%rax, %rcx
.LEHB119:
	call	_ZNSt7__cxx1112basic_stringIcSt11char_traitsIcESaIcEEC1IS3_EEPKcRKS3_
.LEHE119:
	leaq	4080(%rbp), %rax
	movq	%rax, %rcx
.LEHB120:
	call	_Z6getVarNSt7__cxx1112basic_stringIcSt11char_traitsIcESaIcEEE
	movq	%rax, %rcx
	call	_ZN5Value6getValEv
	cvttsd2sil	%xmm0, %eax
	movl	%eax, %edx
	movq	%rbx, %rcx
	call	_ZN5ValueixEi
.LEHE120:
	movq	%rax, %rcx
	leaq	3824(%rbp), %rax
	movq	%rax, %rdx
	call	_ZN5ValueaSEOS_
	leaq	4080(%rbp), %rax
	movq	%rax, %rcx
	call	_ZNSt7__cxx1112basic_stringIcSt11char_traitsIcESaIcEED1Ev
	leaq	4127(%rbp), %rax
	movq	%rax, %rcx
	call	_ZNSt15__new_allocatorIcED2Ev
	nop
	leaq	4032(%rbp), %rax
	movq	%rax, %rcx
	call	_ZNSt7__cxx1112basic_stringIcSt11char_traitsIcESaIcEED1Ev
	leaq	4079(%rbp), %rax
	movq	%rax, %rcx
	call	_ZNSt15__new_allocatorIcED2Ev
	nop
	leaq	3984(%rbp), %rax
	movq	%rax, %rcx
	call	_ZNSt7__cxx1112basic_stringIcSt11char_traitsIcESaIcEED1Ev
	leaq	4031(%rbp), %rax
	movq	%rax, %rcx
	call	_ZNSt15__new_allocatorIcED2Ev
	nop
	leaq	3824(%rbp), %rax
	movq	%rax, %rcx
	call	_ZN5ValueD1Ev
	leaq	3936(%rbp), %rax
	movq	%rax, %rcx
	call	_ZNSt7__cxx1112basic_stringIcSt11char_traitsIcESaIcEED1Ev
	leaq	3983(%rbp), %rax
	movq	%rax, %rcx
	call	_ZNSt15__new_allocatorIcED2Ev
	nop
	leaq	3888(%rbp), %rax
	movq	%rax, %rcx
	call	_ZNSt7__cxx1112basic_stringIcSt11char_traitsIcESaIcEED1Ev
	leaq	3935(%rbp), %rax
	movq	%rax, %rcx
	call	_ZNSt15__new_allocatorIcED2Ev
	nop
	leaq	4128(%rbp), %rax
	movl	$0, %edx
	movq	%rax, %rcx
	call	_ZN5ValueC1Ei
	leaq	4239(%rbp), %rax
	movq	%rax, 12552(%rbp)
	nop
	nop
	leaq	4239(%rbp), %rcx
	leaq	.LC21(%rip), %rdx
	leaq	4192(%rbp), %rax
	movq	%rcx, %r8
	movq	%rax, %rcx
.LEHB121:
	call	_ZNSt7__cxx1112basic_stringIcSt11char_traitsIcESaIcEEC1IS3_EEPKcRKS3_
.LEHE121:
	leaq	4192(%rbp), %rax
	movq	%rax, %rcx
.LEHB122:
	call	_Z6getVarNSt7__cxx1112basic_stringIcSt11char_traitsIcESaIcEEE
.LEHE122:
	movq	%rax, %rbx
	leaq	4287(%rbp), %rax
	movq	%rax, 12544(%rbp)
	nop
	nop
	leaq	4287(%rbp), %rcx
	leaq	.LC12(%rip), %rdx
	leaq	4240(%rbp), %rax
	movq	%rcx, %r8
	movq	%rax, %rcx
.LEHB123:
	call	_ZNSt7__cxx1112basic_stringIcSt11char_traitsIcESaIcEEC1IS3_EEPKcRKS3_
.LEHE123:
	leaq	4240(%rbp), %rax
	movq	%rax, %rcx
.LEHB124:
	call	_Z6getVarNSt7__cxx1112basic_stringIcSt11char_traitsIcESaIcEEE
	movq	%rax, %rcx
	call	_ZN5Value6getValEv
	cvttsd2sil	%xmm0, %eax
	movl	%eax, %edx
	movq	%rbx, %rcx
	call	_ZN5ValueixEi
.LEHE124:
	movq	%rax, %rbx
	leaq	4335(%rbp), %rax
	movq	%rax, 12536(%rbp)
	nop
	nop
	leaq	4335(%rbp), %rcx
	leaq	.LC13(%rip), %rdx
	leaq	4288(%rbp), %rax
	movq	%rcx, %r8
	movq	%rax, %rcx
.LEHB125:
	call	_ZNSt7__cxx1112basic_stringIcSt11char_traitsIcESaIcEEC1IS3_EEPKcRKS3_
.LEHE125:
	leaq	4288(%rbp), %rax
	movq	%rax, %rcx
.LEHB126:
	call	_Z6getVarNSt7__cxx1112basic_stringIcSt11char_traitsIcESaIcEEE
	movq	%rax, %rcx
	call	_ZN5Value6getValEv
	cvttsd2sil	%xmm0, %eax
	movl	%eax, %edx
	movq	%rbx, %rcx
	call	_ZN5ValueixEi
.LEHE126:
	movq	%rax, %rcx
	leaq	4128(%rbp), %rax
	movq	%rax, %rdx
	call	_ZN5ValueaSEOS_
	leaq	4288(%rbp), %rax
	movq	%rax, %rcx
	call	_ZNSt7__cxx1112basic_stringIcSt11char_traitsIcESaIcEED1Ev
	leaq	4335(%rbp), %rax
	movq	%rax, %rcx
	call	_ZNSt15__new_allocatorIcED2Ev
	nop
	leaq	4240(%rbp), %rax
	movq	%rax, %rcx
	call	_ZNSt7__cxx1112basic_stringIcSt11char_traitsIcESaIcEED1Ev
	leaq	4287(%rbp), %rax
	movq	%rax, %rcx
	call	_ZNSt15__new_allocatorIcED2Ev
	nop
	leaq	4192(%rbp), %rax
	movq	%rax, %rcx
	call	_ZNSt7__cxx1112basic_stringIcSt11char_traitsIcESaIcEED1Ev
	leaq	4239(%rbp), %rax
	movq	%rax, %rcx
	call	_ZNSt15__new_allocatorIcED2Ev
	nop
	leaq	4128(%rbp), %rax
	movq	%rax, %rcx
	call	_ZN5ValueD1Ev
	leaq	4447(%rbp), %rax
	movq	%rax, 12528(%rbp)
	nop
	nop
	leaq	4447(%rbp), %rcx
	leaq	.LC13(%rip), %rdx
	leaq	4400(%rbp), %rax
	movq	%rcx, %r8
	movq	%rax, %rcx
.LEHB127:
	call	_ZNSt7__cxx1112basic_stringIcSt11char_traitsIcESaIcEEC1IS3_EEPKcRKS3_
.LEHE127:
	leaq	4400(%rbp), %rax
	movq	%rax, %rcx
.LEHB128:
	call	_Z6getVarNSt7__cxx1112basic_stringIcSt11char_traitsIcESaIcEEE
.LEHE128:
	movq	%rax, %rcx
	call	_ZN5Value6getValEv
	movsd	.LC15(%rip), %xmm1
	addsd	%xmm1, %xmm0
	leaq	4336(%rbp), %rax
	movapd	%xmm0, %xmm1
	movq	%rax, %rcx
	call	_ZN5ValueC1Ed
	leaq	4495(%rbp), %rax
	movq	%rax, 12520(%rbp)
	nop
	nop
	leaq	4495(%rbp), %rcx
	leaq	.LC13(%rip), %rdx
	leaq	4448(%rbp), %rax
	movq	%rcx, %r8
	movq	%rax, %rcx
.LEHB129:
	call	_ZNSt7__cxx1112basic_stringIcSt11char_traitsIcESaIcEEC1IS3_EEPKcRKS3_
.LEHE129:
	leaq	4336(%rbp), %rdx
	leaq	4448(%rbp), %rax
	movq	%rax, %rcx
.LEHB130:
	call	_Z6setVarNSt7__cxx1112basic_stringIcSt11char_traitsIcESaIcEEE5Value
.LEHE130:
	leaq	4448(%rbp), %rax
	movq	%rax, %rcx
	call	_ZNSt7__cxx1112basic_stringIcSt11char_traitsIcESaIcEED1Ev
	leaq	4495(%rbp), %rax
	movq	%rax, %rcx
	call	_ZNSt15__new_allocatorIcED2Ev
	nop
	leaq	4336(%rbp), %rax
	movq	%rax, %rcx
	call	_ZN5ValueD1Ev
	leaq	4400(%rbp), %rax
	movq	%rax, %rcx
	call	_ZNSt7__cxx1112basic_stringIcSt11char_traitsIcESaIcEED1Ev
	leaq	4447(%rbp), %rax
	movq	%rax, %rcx
	call	_ZNSt15__new_allocatorIcED2Ev
	nop
.L90:
	leaq	4543(%rbp), %rax
	movq	%rax, 12512(%rbp)
	nop
	nop
	leaq	4543(%rbp), %rcx
	leaq	.LC13(%rip), %rdx
	leaq	4496(%rbp), %rax
	movq	%rcx, %r8
	movq	%rax, %rcx
.LEHB131:
	call	_ZNSt7__cxx1112basic_stringIcSt11char_traitsIcESaIcEEC1IS3_EEPKcRKS3_
.LEHE131:
	leaq	4496(%rbp), %rax
	movq	%rax, %rcx
.LEHB132:
	call	_Z6getVarNSt7__cxx1112basic_stringIcSt11char_traitsIcESaIcEEE
.LEHE132:
	movq	%rax, %rcx
	call	_ZN5Value6getValEv
	movapd	%xmm0, %xmm6
	leaq	4544(%rbp), %rax
	movl	$2, %edx
	movq	%rax, %rcx
	call	_ZN5ValueC1Ei
	leaq	4544(%rbp), %rax
	movq	%rax, %rcx
	call	_ZN5Value6getValEv
	movq	%xmm0, %rax
	movq	%rax, %xmm5
	comisd	%xmm6, %xmm5
	setnb	%bl
	leaq	4544(%rbp), %rax
	movq	%rax, %rcx
	call	_ZN5ValueD1Ev
	leaq	4496(%rbp), %rax
	movq	%rax, %rcx
	call	_ZNSt7__cxx1112basic_stringIcSt11char_traitsIcESaIcEED1Ev
	leaq	4543(%rbp), %rax
	movq	%rax, %rcx
	call	_ZNSt15__new_allocatorIcED2Ev
	nop
	testb	%bl, %bl
	jne	.L91
	leaq	4719(%rbp), %rax
	movq	%rax, 12504(%rbp)
	nop
	nop
	leaq	4719(%rbp), %rcx
	leaq	.LC12(%rip), %rdx
	leaq	4672(%rbp), %rax
	movq	%rcx, %r8
	movq	%rax, %rcx
.LEHB133:
	call	_ZNSt7__cxx1112basic_stringIcSt11char_traitsIcESaIcEEC1IS3_EEPKcRKS3_
.LEHE133:
	leaq	4672(%rbp), %rax
	movq	%rax, %rcx
.LEHB134:
	call	_Z6getVarNSt7__cxx1112basic_stringIcSt11char_traitsIcESaIcEEE
.LEHE134:
	movq	%rax, %rcx
	call	_ZN5Value6getValEv
	movsd	.LC15(%rip), %xmm1
	addsd	%xmm1, %xmm0
	leaq	4608(%rbp), %rax
	movapd	%xmm0, %xmm1
	movq	%rax, %rcx
	call	_ZN5ValueC1Ed
	leaq	4767(%rbp), %rax
	movq	%rax, 12496(%rbp)
	nop
	nop
	leaq	4767(%rbp), %rcx
	leaq	.LC12(%rip), %rdx
	leaq	4720(%rbp), %rax
	movq	%rcx, %r8
	movq	%rax, %rcx
.LEHB135:
	call	_ZNSt7__cxx1112basic_stringIcSt11char_traitsIcESaIcEEC1IS3_EEPKcRKS3_
.LEHE135:
	leaq	4608(%rbp), %rdx
	leaq	4720(%rbp), %rax
	movq	%rax, %rcx
.LEHB136:
	call	_Z6setVarNSt7__cxx1112basic_stringIcSt11char_traitsIcESaIcEEE5Value
.LEHE136:
	leaq	4720(%rbp), %rax
	movq	%rax, %rcx
	call	_ZNSt7__cxx1112basic_stringIcSt11char_traitsIcESaIcEED1Ev
	leaq	4767(%rbp), %rax
	movq	%rax, %rcx
	call	_ZNSt15__new_allocatorIcED2Ev
	nop
	leaq	4608(%rbp), %rax
	movq	%rax, %rcx
	call	_ZN5ValueD1Ev
	leaq	4672(%rbp), %rax
	movq	%rax, %rcx
	call	_ZNSt7__cxx1112basic_stringIcSt11char_traitsIcESaIcEED1Ev
	leaq	4719(%rbp), %rax
	movq	%rax, %rcx
	call	_ZNSt15__new_allocatorIcED2Ev
	nop
.L89:
	leaq	4815(%rbp), %rax
	movq	%rax, 12488(%rbp)
	nop
	nop
	leaq	4815(%rbp), %rcx
	leaq	.LC12(%rip), %rdx
	leaq	4768(%rbp), %rax
	movq	%rcx, %r8
	movq	%rax, %rcx
.LEHB137:
	call	_ZNSt7__cxx1112basic_stringIcSt11char_traitsIcESaIcEEC1IS3_EEPKcRKS3_
.LEHE137:
	leaq	4768(%rbp), %rax
	movq	%rax, %rcx
.LEHB138:
	call	_Z6getVarNSt7__cxx1112basic_stringIcSt11char_traitsIcESaIcEEE
.LEHE138:
	movq	%rax, %rcx
	call	_ZN5Value6getValEv
	movapd	%xmm0, %xmm6
	leaq	4816(%rbp), %rax
	movl	$2, %edx
	movq	%rax, %rcx
	call	_ZN5ValueC1Ei
	leaq	4816(%rbp), %rax
	movq	%rax, %rcx
	call	_ZN5Value6getValEv
	movq	%xmm0, %rax
	movq	%rax, %xmm2
	comisd	%xmm6, %xmm2
	setnb	%bl
	leaq	4816(%rbp), %rax
	movq	%rax, %rcx
	call	_ZN5ValueD1Ev
	leaq	4768(%rbp), %rax
	movq	%rax, %rcx
	call	_ZNSt7__cxx1112basic_stringIcSt11char_traitsIcESaIcEED1Ev
	leaq	4815(%rbp), %rax
	movq	%rax, %rcx
	call	_ZNSt15__new_allocatorIcED2Ev
	nop
	testb	%bl, %bl
	jne	.L92
	leaq	4880(%rbp), %rax
	movl	$0, %edx
	movq	%rax, %rcx
	call	_ZN5ValueC1Ei
	leaq	4991(%rbp), %rax
	movq	%rax, 12480(%rbp)
	nop
	nop
	leaq	4991(%rbp), %rcx
	leaq	.LC12(%rip), %rdx
	leaq	4944(%rbp), %rax
	movq	%rcx, %r8
	movq	%rax, %rcx
.LEHB139:
	call	_ZNSt7__cxx1112basic_stringIcSt11char_traitsIcESaIcEEC1IS3_EEPKcRKS3_
.LEHE139:
	leaq	4880(%rbp), %rdx
	leaq	4944(%rbp), %rax
	movq	%rax, %rcx
.LEHB140:
	call	_Z6setVarNSt7__cxx1112basic_stringIcSt11char_traitsIcESaIcEEE5Value
.LEHE140:
	leaq	4944(%rbp), %rax
	movq	%rax, %rcx
	call	_ZNSt7__cxx1112basic_stringIcSt11char_traitsIcESaIcEED1Ev
	leaq	4991(%rbp), %rax
	movq	%rax, %rcx
	call	_ZNSt15__new_allocatorIcED2Ev
	nop
	leaq	4880(%rbp), %rax
	movq	%rax, %rcx
	call	_ZN5ValueD1Ev
	jmp	.L93
.L98:
	leaq	4992(%rbp), %rax
	movl	$0, %edx
	movq	%rax, %rcx
	call	_ZN5ValueC1Ei
	leaq	5103(%rbp), %rax
	movq	%rax, 12472(%rbp)
	nop
	nop
	leaq	5103(%rbp), %rcx
	leaq	.LC13(%rip), %rdx
	leaq	5056(%rbp), %rax
	movq	%rcx, %r8
	movq	%rax, %rcx
.LEHB141:
	call	_ZNSt7__cxx1112basic_stringIcSt11char_traitsIcESaIcEEC1IS3_EEPKcRKS3_
.LEHE141:
	leaq	4992(%rbp), %rdx
	leaq	5056(%rbp), %rax
	movq	%rax, %rcx
.LEHB142:
	call	_Z6setVarNSt7__cxx1112basic_stringIcSt11char_traitsIcESaIcEEE5Value
.LEHE142:
	leaq	5056(%rbp), %rax
	movq	%rax, %rcx
	call	_ZNSt7__cxx1112basic_stringIcSt11char_traitsIcESaIcEED1Ev
	leaq	5103(%rbp), %rax
	movq	%rax, %rcx
	call	_ZNSt15__new_allocatorIcED2Ev
	nop
	leaq	4992(%rbp), %rax
	movq	%rax, %rcx
	call	_ZN5ValueD1Ev
	jmp	.L94
.L97:
	leaq	5104(%rbp), %rax
	movl	$0, %edx
	movq	%rax, %rcx
	call	_ZN5ValueC1Ei
	leaq	5215(%rbp), %rax
	movq	%rax, 12464(%rbp)
	nop
	nop
	leaq	5215(%rbp), %rcx
	leaq	.LC22(%rip), %rdx
	leaq	5168(%rbp), %rax
	movq	%rcx, %r8
	movq	%rax, %rcx
.LEHB143:
	call	_ZNSt7__cxx1112basic_stringIcSt11char_traitsIcESaIcEEC1IS3_EEPKcRKS3_
.LEHE143:
	leaq	5104(%rbp), %rdx
	leaq	5168(%rbp), %rax
	movq	%rax, %rcx
.LEHB144:
	call	_Z6setVarNSt7__cxx1112basic_stringIcSt11char_traitsIcESaIcEEE5Value
.LEHE144:
	leaq	5168(%rbp), %rax
	movq	%rax, %rcx
	call	_ZNSt7__cxx1112basic_stringIcSt11char_traitsIcESaIcEED1Ev
	leaq	5215(%rbp), %rax
	movq	%rax, %rcx
	call	_ZNSt15__new_allocatorIcED2Ev
	nop
	leaq	5104(%rbp), %rax
	movq	%rax, %rcx
	call	_ZN5ValueD1Ev
	jmp	.L95
.L96:
	leaq	5327(%rbp), %rax
	movq	%rax, 12456(%rbp)
	nop
	nop
	leaq	5327(%rbp), %rcx
	leaq	.LC19(%rip), %rdx
	leaq	5280(%rbp), %rax
	movq	%rcx, %r8
	movq	%rax, %rcx
.LEHB145:
	call	_ZNSt7__cxx1112basic_stringIcSt11char_traitsIcESaIcEEC1IS3_EEPKcRKS3_
.LEHE145:
	leaq	5280(%rbp), %rax
	movq	%rax, %rcx
.LEHB146:
	call	_Z6getVarNSt7__cxx1112basic_stringIcSt11char_traitsIcESaIcEEE
.LEHE146:
	movq	%rax, %rbx
	leaq	5375(%rbp), %rax
	movq	%rax, 12448(%rbp)
	nop
	nop
	leaq	5375(%rbp), %rcx
	leaq	.LC12(%rip), %rdx
	leaq	5328(%rbp), %rax
	movq	%rcx, %r8
	movq	%rax, %rcx
.LEHB147:
	call	_ZNSt7__cxx1112basic_stringIcSt11char_traitsIcESaIcEEC1IS3_EEPKcRKS3_
.LEHE147:
	leaq	5328(%rbp), %rax
	movq	%rax, %rcx
.LEHB148:
	call	_Z6getVarNSt7__cxx1112basic_stringIcSt11char_traitsIcESaIcEEE
	movq	%rax, %rcx
	call	_ZN5Value6getValEv
	cvttsd2sil	%xmm0, %eax
	movl	%eax, %edx
	movq	%rbx, %rcx
	call	_ZN5ValueixEi
.LEHE148:
	movq	%rax, %rbx
	leaq	5423(%rbp), %rax
	movq	%rax, 12440(%rbp)
	nop
	nop
	leaq	5423(%rbp), %rcx
	leaq	.LC22(%rip), %rdx
	leaq	5376(%rbp), %rax
	movq	%rcx, %r8
	movq	%rax, %rcx
.LEHB149:
	call	_ZNSt7__cxx1112basic_stringIcSt11char_traitsIcESaIcEEC1IS3_EEPKcRKS3_
.LEHE149:
	leaq	5376(%rbp), %rax
	movq	%rax, %rcx
.LEHB150:
	call	_Z6getVarNSt7__cxx1112basic_stringIcSt11char_traitsIcESaIcEEE
	movq	%rax, %rcx
	call	_ZN5Value6getValEv
	cvttsd2sil	%xmm0, %eax
	movl	%eax, %edx
	movq	%rbx, %rcx
	call	_ZN5ValueixEi
.LEHE150:
	movq	%rax, %rcx
	call	_ZN5Value6getValEv
	movapd	%xmm0, %xmm6
	leaq	5471(%rbp), %rax
	movq	%rax, 12432(%rbp)
	nop
	nop
	leaq	5471(%rbp), %rcx
	leaq	.LC20(%rip), %rdx
	leaq	5424(%rbp), %rax
	movq	%rcx, %r8
	movq	%rax, %rcx
.LEHB151:
	call	_ZNSt7__cxx1112basic_stringIcSt11char_traitsIcESaIcEEC1IS3_EEPKcRKS3_
.LEHE151:
	leaq	5424(%rbp), %rax
	movq	%rax, %rcx
.LEHB152:
	call	_Z6getVarNSt7__cxx1112basic_stringIcSt11char_traitsIcESaIcEEE
.LEHE152:
	movq	%rax, %rbx
	leaq	5519(%rbp), %rax
	movq	%rax, 12424(%rbp)
	nop
	nop
	leaq	5519(%rbp), %rcx
	leaq	.LC22(%rip), %rdx
	leaq	5472(%rbp), %rax
	movq	%rcx, %r8
	movq	%rax, %rcx
.LEHB153:
	call	_ZNSt7__cxx1112basic_stringIcSt11char_traitsIcESaIcEEC1IS3_EEPKcRKS3_
.LEHE153:
	leaq	5472(%rbp), %rax
	movq	%rax, %rcx
.LEHB154:
	call	_Z6getVarNSt7__cxx1112basic_stringIcSt11char_traitsIcESaIcEEE
	movq	%rax, %rcx
	call	_ZN5Value6getValEv
	cvttsd2sil	%xmm0, %eax
	movl	%eax, %edx
	movq	%rbx, %rcx
	call	_ZN5ValueixEi
.LEHE154:
	movq	%rax, %rbx
	leaq	5567(%rbp), %rax
	movq	%rax, 12416(%rbp)
	nop
	nop
	leaq	5567(%rbp), %rcx
	leaq	.LC13(%rip), %rdx
	leaq	5520(%rbp), %rax
	movq	%rcx, %r8
	movq	%rax, %rcx
.LEHB155:
	call	_ZNSt7__cxx1112basic_stringIcSt11char_traitsIcESaIcEEC1IS3_EEPKcRKS3_
.LEHE155:
	leaq	5520(%rbp), %rax
	movq	%rax, %rcx
.LEHB156:
	call	_Z6getVarNSt7__cxx1112basic_stringIcSt11char_traitsIcESaIcEEE
	movq	%rax, %rcx
	call	_ZN5Value6getValEv
	cvttsd2sil	%xmm0, %eax
	movl	%eax, %edx
	movq	%rbx, %rcx
	call	_ZN5ValueixEi
.LEHE156:
	movq	%rax, %rcx
	call	_ZN5Value6getValEv
	mulsd	%xmm6, %xmm0
	leaq	5216(%rbp), %rax
	movapd	%xmm0, %xmm1
	movq	%rax, %rcx
	call	_ZN5ValueC1Ed
	leaq	5615(%rbp), %rax
	movq	%rax, 12408(%rbp)
	nop
	nop
	leaq	5615(%rbp), %rcx
	leaq	.LC23(%rip), %rdx
	leaq	5568(%rbp), %rax
	movq	%rcx, %r8
	movq	%rax, %rcx
.LEHB157:
	call	_ZNSt7__cxx1112basic_stringIcSt11char_traitsIcESaIcEEC1IS3_EEPKcRKS3_
.LEHE157:
	leaq	5216(%rbp), %rdx
	leaq	5568(%rbp), %rax
	movq	%rax, %rcx
.LEHB158:
	call	_Z6setVarNSt7__cxx1112basic_stringIcSt11char_traitsIcESaIcEEE5Value
.LEHE158:
	leaq	5568(%rbp), %rax
	movq	%rax, %rcx
	call	_ZNSt7__cxx1112basic_stringIcSt11char_traitsIcESaIcEED1Ev
	leaq	5615(%rbp), %rax
	movq	%rax, %rcx
	call	_ZNSt15__new_allocatorIcED2Ev
	nop
	leaq	5216(%rbp), %rax
	movq	%rax, %rcx
	call	_ZN5ValueD1Ev
	leaq	5520(%rbp), %rax
	movq	%rax, %rcx
	call	_ZNSt7__cxx1112basic_stringIcSt11char_traitsIcESaIcEED1Ev
	leaq	5567(%rbp), %rax
	movq	%rax, %rcx
	call	_ZNSt15__new_allocatorIcED2Ev
	nop
	leaq	5472(%rbp), %rax
	movq	%rax, %rcx
	call	_ZNSt7__cxx1112basic_stringIcSt11char_traitsIcESaIcEED1Ev
	leaq	5519(%rbp), %rax
	movq	%rax, %rcx
	call	_ZNSt15__new_allocatorIcED2Ev
	nop
	leaq	5424(%rbp), %rax
	movq	%rax, %rcx
	call	_ZNSt7__cxx1112basic_stringIcSt11char_traitsIcESaIcEED1Ev
	leaq	5471(%rbp), %rax
	movq	%rax, %rcx
	call	_ZNSt15__new_allocatorIcED2Ev
	nop
	leaq	5376(%rbp), %rax
	movq	%rax, %rcx
	call	_ZNSt7__cxx1112basic_stringIcSt11char_traitsIcESaIcEED1Ev
	leaq	5423(%rbp), %rax
	movq	%rax, %rcx
	call	_ZNSt15__new_allocatorIcED2Ev
	nop
	leaq	5328(%rbp), %rax
	movq	%rax, %rcx
	call	_ZNSt7__cxx1112basic_stringIcSt11char_traitsIcESaIcEED1Ev
	leaq	5375(%rbp), %rax
	movq	%rax, %rcx
	call	_ZNSt15__new_allocatorIcED2Ev
	nop
	leaq	5280(%rbp), %rax
	movq	%rax, %rcx
	call	_ZNSt7__cxx1112basic_stringIcSt11char_traitsIcESaIcEED1Ev
	leaq	5327(%rbp), %rax
	movq	%rax, %rcx
	call	_ZNSt15__new_allocatorIcED2Ev
	nop
	leaq	5727(%rbp), %rax
	movq	%rax, 12400(%rbp)
	nop
	nop
	leaq	5727(%rbp), %rcx
	leaq	.LC21(%rip), %rdx
	leaq	5680(%rbp), %rax
	movq	%rcx, %r8
	movq	%rax, %rcx
.LEHB159:
	call	_ZNSt7__cxx1112basic_stringIcSt11char_traitsIcESaIcEEC1IS3_EEPKcRKS3_
.LEHE159:
	leaq	5680(%rbp), %rax
	movq	%rax, %rcx
.LEHB160:
	call	_Z6getVarNSt7__cxx1112basic_stringIcSt11char_traitsIcESaIcEEE
.LEHE160:
	movq	%rax, %rbx
	leaq	5775(%rbp), %rax
	movq	%rax, 12392(%rbp)
	nop
	nop
	leaq	5775(%rbp), %rcx
	leaq	.LC12(%rip), %rdx
	leaq	5728(%rbp), %rax
	movq	%rcx, %r8
	movq	%rax, %rcx
.LEHB161:
	call	_ZNSt7__cxx1112basic_stringIcSt11char_traitsIcESaIcEEC1IS3_EEPKcRKS3_
.LEHE161:
	leaq	5728(%rbp), %rax
	movq	%rax, %rcx
.LEHB162:
	call	_Z6getVarNSt7__cxx1112basic_stringIcSt11char_traitsIcESaIcEEE
	movq	%rax, %rcx
	call	_ZN5Value6getValEv
	cvttsd2sil	%xmm0, %eax
	movl	%eax, %edx
	movq	%rbx, %rcx
	call	_ZN5ValueixEi
.LEHE162:
	movq	%rax, %rbx
	leaq	5823(%rbp), %rax
	movq	%rax, 12384(%rbp)
	nop
	nop
	leaq	5823(%rbp), %rcx
	leaq	.LC13(%rip), %rdx
	leaq	5776(%rbp), %rax
	movq	%rcx, %r8
	movq	%rax, %rcx
.LEHB163:
	call	_ZNSt7__cxx1112basic_stringIcSt11char_traitsIcESaIcEEC1IS3_EEPKcRKS3_
.LEHE163:
	leaq	5776(%rbp), %rax
	movq	%rax, %rcx
.LEHB164:
	call	_Z6getVarNSt7__cxx1112basic_stringIcSt11char_traitsIcESaIcEEE
	movq	%rax, %rcx
	call	_ZN5Value6getValEv
	cvttsd2sil	%xmm0, %eax
	movl	%eax, %edx
	movq	%rbx, %rcx
	call	_ZN5ValueixEi
.LEHE164:
	movq	%rax, %rcx
	call	_ZN5Value6getValEv
	movapd	%xmm0, %xmm6
	leaq	5871(%rbp), %rax
	movq	%rax, 12376(%rbp)
	nop
	nop
	leaq	5871(%rbp), %rcx
	leaq	.LC23(%rip), %rdx
	leaq	5824(%rbp), %rax
	movq	%rcx, %r8
	movq	%rax, %rcx
.LEHB165:
	call	_ZNSt7__cxx1112basic_stringIcSt11char_traitsIcESaIcEEC1IS3_EEPKcRKS3_
.LEHE165:
	leaq	5824(%rbp), %rax
	movq	%rax, %rcx
.LEHB166:
	call	_Z6getVarNSt7__cxx1112basic_stringIcSt11char_traitsIcESaIcEEE
.LEHE166:
	movq	%rax, %rcx
	call	_ZN5Value6getValEv
	addsd	%xmm6, %xmm0
	leaq	5616(%rbp), %rax
	movapd	%xmm0, %xmm1
	movq	%rax, %rcx
	call	_ZN5ValueC1Ed
	leaq	5919(%rbp), %rax
	movq	%rax, 12368(%rbp)
	nop
	nop
	leaq	5919(%rbp), %rcx
	leaq	.LC21(%rip), %rdx
	leaq	5872(%rbp), %rax
	movq	%rcx, %r8
	movq	%rax, %rcx
.LEHB167:
	call	_ZNSt7__cxx1112basic_stringIcSt11char_traitsIcESaIcEEC1IS3_EEPKcRKS3_
.LEHE167:
	leaq	5872(%rbp), %rax
	movq	%rax, %rcx
.LEHB168:
	call	_Z6getVarNSt7__cxx1112basic_stringIcSt11char_traitsIcESaIcEEE
.LEHE168:
	movq	%rax, %rbx
	leaq	5967(%rbp), %rax
	movq	%rax, 12360(%rbp)
	nop
	nop
	leaq	5967(%rbp), %rcx
	leaq	.LC12(%rip), %rdx
	leaq	5920(%rbp), %rax
	movq	%rcx, %r8
	movq	%rax, %rcx
.LEHB169:
	call	_ZNSt7__cxx1112basic_stringIcSt11char_traitsIcESaIcEEC1IS3_EEPKcRKS3_
.LEHE169:
	leaq	5920(%rbp), %rax
	movq	%rax, %rcx
.LEHB170:
	call	_Z6getVarNSt7__cxx1112basic_stringIcSt11char_traitsIcESaIcEEE
	movq	%rax, %rcx
	call	_ZN5Value6getValEv
	cvttsd2sil	%xmm0, %eax
	movl	%eax, %edx
	movq	%rbx, %rcx
	call	_ZN5ValueixEi
.LEHE170:
	movq	%rax, %rbx
	leaq	6015(%rbp), %rax
	movq	%rax, 12352(%rbp)
	nop
	nop
	leaq	6015(%rbp), %rcx
	leaq	.LC13(%rip), %rdx
	leaq	5968(%rbp), %rax
	movq	%rcx, %r8
	movq	%rax, %rcx
.LEHB171:
	call	_ZNSt7__cxx1112basic_stringIcSt11char_traitsIcESaIcEEC1IS3_EEPKcRKS3_
.LEHE171:
	leaq	5968(%rbp), %rax
	movq	%rax, %rcx
.LEHB172:
	call	_Z6getVarNSt7__cxx1112basic_stringIcSt11char_traitsIcESaIcEEE
	movq	%rax, %rcx
	call	_ZN5Value6getValEv
	cvttsd2sil	%xmm0, %eax
	movl	%eax, %edx
	movq	%rbx, %rcx
	call	_ZN5ValueixEi
.LEHE172:
	movq	%rax, %rcx
	leaq	5616(%rbp), %rax
	movq	%rax, %rdx
	call	_ZN5ValueaSEOS_
	leaq	5968(%rbp), %rax
	movq	%rax, %rcx
	call	_ZNSt7__cxx1112basic_stringIcSt11char_traitsIcESaIcEED1Ev
	leaq	6015(%rbp), %rax
	movq	%rax, %rcx
	call	_ZNSt15__new_allocatorIcED2Ev
	nop
	leaq	5920(%rbp), %rax
	movq	%rax, %rcx
	call	_ZNSt7__cxx1112basic_stringIcSt11char_traitsIcESaIcEED1Ev
	leaq	5967(%rbp), %rax
	movq	%rax, %rcx
	call	_ZNSt15__new_allocatorIcED2Ev
	nop
	leaq	5872(%rbp), %rax
	movq	%rax, %rcx
	call	_ZNSt7__cxx1112basic_stringIcSt11char_traitsIcESaIcEED1Ev
	leaq	5919(%rbp), %rax
	movq	%rax, %rcx
	call	_ZNSt15__new_allocatorIcED2Ev
	nop
	leaq	5616(%rbp), %rax
	movq	%rax, %rcx
	call	_ZN5ValueD1Ev
	leaq	5824(%rbp), %rax
	movq	%rax, %rcx
	call	_ZNSt7__cxx1112basic_stringIcSt11char_traitsIcESaIcEED1Ev
	leaq	5871(%rbp), %rax
	movq	%rax, %rcx
	call	_ZNSt15__new_allocatorIcED2Ev
	nop
	leaq	5776(%rbp), %rax
	movq	%rax, %rcx
	call	_ZNSt7__cxx1112basic_stringIcSt11char_traitsIcESaIcEED1Ev
	leaq	5823(%rbp), %rax
	movq	%rax, %rcx
	call	_ZNSt15__new_allocatorIcED2Ev
	nop
	leaq	5728(%rbp), %rax
	movq	%rax, %rcx
	call	_ZNSt7__cxx1112basic_stringIcSt11char_traitsIcESaIcEED1Ev
	leaq	5775(%rbp), %rax
	movq	%rax, %rcx
	call	_ZNSt15__new_allocatorIcED2Ev
	nop
	leaq	5680(%rbp), %rax
	movq	%rax, %rcx
	call	_ZNSt7__cxx1112basic_stringIcSt11char_traitsIcESaIcEED1Ev
	leaq	5727(%rbp), %rax
	movq	%rax, %rcx
	call	_ZNSt15__new_allocatorIcED2Ev
	nop
	leaq	6127(%rbp), %rax
	movq	%rax, 12344(%rbp)
	nop
	nop
	leaq	6127(%rbp), %rcx
	leaq	.LC22(%rip), %rdx
	leaq	6080(%rbp), %rax
	movq	%rcx, %r8
	movq	%rax, %rcx
.LEHB173:
	call	_ZNSt7__cxx1112basic_stringIcSt11char_traitsIcESaIcEEC1IS3_EEPKcRKS3_
.LEHE173:
	leaq	6080(%rbp), %rax
	movq	%rax, %rcx
.LEHB174:
	call	_Z6getVarNSt7__cxx1112basic_stringIcSt11char_traitsIcESaIcEEE
.LEHE174:
	movq	%rax, %rcx
	call	_ZN5Value6getValEv
	movsd	.LC15(%rip), %xmm1
	addsd	%xmm1, %xmm0
	leaq	6016(%rbp), %rax
	movapd	%xmm0, %xmm1
	movq	%rax, %rcx
	call	_ZN5ValueC1Ed
	leaq	6175(%rbp), %rax
	movq	%rax, 12336(%rbp)
	nop
	nop
	leaq	6175(%rbp), %rcx
	leaq	.LC22(%rip), %rdx
	leaq	6128(%rbp), %rax
	movq	%rcx, %r8
	movq	%rax, %rcx
.LEHB175:
	call	_ZNSt7__cxx1112basic_stringIcSt11char_traitsIcESaIcEEC1IS3_EEPKcRKS3_
.LEHE175:
	leaq	6016(%rbp), %rdx
	leaq	6128(%rbp), %rax
	movq	%rax, %rcx
.LEHB176:
	call	_Z6setVarNSt7__cxx1112basic_stringIcSt11char_traitsIcESaIcEEE5Value
.LEHE176:
	leaq	6128(%rbp), %rax
	movq	%rax, %rcx
	call	_ZNSt7__cxx1112basic_stringIcSt11char_traitsIcESaIcEED1Ev
	leaq	6175(%rbp), %rax
	movq	%rax, %rcx
	call	_ZNSt15__new_allocatorIcED2Ev
	nop
	leaq	6016(%rbp), %rax
	movq	%rax, %rcx
	call	_ZN5ValueD1Ev
	leaq	6080(%rbp), %rax
	movq	%rax, %rcx
	call	_ZNSt7__cxx1112basic_stringIcSt11char_traitsIcESaIcEED1Ev
	leaq	6127(%rbp), %rax
	movq	%rax, %rcx
	call	_ZNSt15__new_allocatorIcED2Ev
	nop
.L95:
	leaq	6223(%rbp), %rax
	movq	%rax, 12328(%rbp)
	nop
	nop
	leaq	6223(%rbp), %rcx
	leaq	.LC22(%rip), %rdx
	leaq	6176(%rbp), %rax
	movq	%rcx, %r8
	movq	%rax, %rcx
.LEHB177:
	call	_ZNSt7__cxx1112basic_stringIcSt11char_traitsIcESaIcEEC1IS3_EEPKcRKS3_
.LEHE177:
	leaq	6176(%rbp), %rax
	movq	%rax, %rcx
.LEHB178:
	call	_Z6getVarNSt7__cxx1112basic_stringIcSt11char_traitsIcESaIcEEE
.LEHE178:
	movq	%rax, %rcx
	call	_ZN5Value6getValEv
	movapd	%xmm0, %xmm6
	leaq	6224(%rbp), %rax
	movl	$2, %edx
	movq	%rax, %rcx
	call	_ZN5ValueC1Ei
	leaq	6224(%rbp), %rax
	movq	%rax, %rcx
	call	_ZN5Value6getValEv
	movq	%xmm0, %rax
	movq	%rax, %xmm3
	comisd	%xmm6, %xmm3
	setnb	%bl
	leaq	6224(%rbp), %rax
	movq	%rax, %rcx
	call	_ZN5ValueD1Ev
	leaq	6176(%rbp), %rax
	movq	%rax, %rcx
	call	_ZNSt7__cxx1112basic_stringIcSt11char_traitsIcESaIcEED1Ev
	leaq	6223(%rbp), %rax
	movq	%rax, %rcx
	call	_ZNSt15__new_allocatorIcED2Ev
	nop
	testb	%bl, %bl
	jne	.L96
	leaq	6399(%rbp), %rax
	movq	%rax, 12320(%rbp)
	nop
	nop
	leaq	6399(%rbp), %rcx
	leaq	.LC13(%rip), %rdx
	leaq	6352(%rbp), %rax
	movq	%rcx, %r8
	movq	%rax, %rcx
.LEHB179:
	call	_ZNSt7__cxx1112basic_stringIcSt11char_traitsIcESaIcEEC1IS3_EEPKcRKS3_
.LEHE179:
	leaq	6352(%rbp), %rax
	movq	%rax, %rcx
.LEHB180:
	call	_Z6getVarNSt7__cxx1112basic_stringIcSt11char_traitsIcESaIcEEE
.LEHE180:
	movq	%rax, %rcx
	call	_ZN5Value6getValEv
	movsd	.LC15(%rip), %xmm1
	addsd	%xmm1, %xmm0
	leaq	6288(%rbp), %rax
	movapd	%xmm0, %xmm1
	movq	%rax, %rcx
	call	_ZN5ValueC1Ed
	leaq	6447(%rbp), %rax
	movq	%rax, 12312(%rbp)
	nop
	nop
	leaq	6447(%rbp), %rcx
	leaq	.LC13(%rip), %rdx
	leaq	6400(%rbp), %rax
	movq	%rcx, %r8
	movq	%rax, %rcx
.LEHB181:
	call	_ZNSt7__cxx1112basic_stringIcSt11char_traitsIcESaIcEEC1IS3_EEPKcRKS3_
.LEHE181:
	leaq	6288(%rbp), %rdx
	leaq	6400(%rbp), %rax
	movq	%rax, %rcx
.LEHB182:
	call	_Z6setVarNSt7__cxx1112basic_stringIcSt11char_traitsIcESaIcEEE5Value
.LEHE182:
	leaq	6400(%rbp), %rax
	movq	%rax, %rcx
	call	_ZNSt7__cxx1112basic_stringIcSt11char_traitsIcESaIcEED1Ev
	leaq	6447(%rbp), %rax
	movq	%rax, %rcx
	call	_ZNSt15__new_allocatorIcED2Ev
	nop
	leaq	6288(%rbp), %rax
	movq	%rax, %rcx
	call	_ZN5ValueD1Ev
	leaq	6352(%rbp), %rax
	movq	%rax, %rcx
	call	_ZNSt7__cxx1112basic_stringIcSt11char_traitsIcESaIcEED1Ev
	leaq	6399(%rbp), %rax
	movq	%rax, %rcx
	call	_ZNSt15__new_allocatorIcED2Ev
	nop
.L94:
	leaq	6495(%rbp), %rax
	movq	%rax, 12304(%rbp)
	nop
	nop
	leaq	6495(%rbp), %rcx
	leaq	.LC13(%rip), %rdx
	leaq	6448(%rbp), %rax
	movq	%rcx, %r8
	movq	%rax, %rcx
.LEHB183:
	call	_ZNSt7__cxx1112basic_stringIcSt11char_traitsIcESaIcEEC1IS3_EEPKcRKS3_
.LEHE183:
	leaq	6448(%rbp), %rax
	movq	%rax, %rcx
.LEHB184:
	call	_Z6getVarNSt7__cxx1112basic_stringIcSt11char_traitsIcESaIcEEE
.LEHE184:
	movq	%rax, %rcx
	call	_ZN5Value6getValEv
	movapd	%xmm0, %xmm6
	leaq	6496(%rbp), %rax
	movl	$2, %edx
	movq	%rax, %rcx
	call	_ZN5ValueC1Ei
	leaq	6496(%rbp), %rax
	movq	%rax, %rcx
	call	_ZN5Value6getValEv
	movq	%xmm0, %rax
	movq	%rax, %xmm4
	comisd	%xmm6, %xmm4
	setnb	%bl
	leaq	6496(%rbp), %rax
	movq	%rax, %rcx
	call	_ZN5ValueD1Ev
	leaq	6448(%rbp), %rax
	movq	%rax, %rcx
	call	_ZNSt7__cxx1112basic_stringIcSt11char_traitsIcESaIcEED1Ev
	leaq	6495(%rbp), %rax
	movq	%rax, %rcx
	call	_ZNSt15__new_allocatorIcED2Ev
	nop
	testb	%bl, %bl
	jne	.L97
	leaq	6671(%rbp), %rax
	movq	%rax, 12296(%rbp)
	nop
	nop
	leaq	6671(%rbp), %rcx
	leaq	.LC12(%rip), %rdx
	leaq	6624(%rbp), %rax
	movq	%rcx, %r8
	movq	%rax, %rcx
.LEHB185:
	call	_ZNSt7__cxx1112basic_stringIcSt11char_traitsIcESaIcEEC1IS3_EEPKcRKS3_
.LEHE185:
	leaq	6624(%rbp), %rax
	movq	%rax, %rcx
.LEHB186:
	call	_Z6getVarNSt7__cxx1112basic_stringIcSt11char_traitsIcESaIcEEE
.LEHE186:
	movq	%rax, %rcx
	call	_ZN5Value6getValEv
	movsd	.LC15(%rip), %xmm1
	addsd	%xmm1, %xmm0
	leaq	6560(%rbp), %rax
	movapd	%xmm0, %xmm1
	movq	%rax, %rcx
	call	_ZN5ValueC1Ed
	leaq	6719(%rbp), %rax
	movq	%rax, 12288(%rbp)
	nop
	nop
	leaq	6719(%rbp), %rcx
	leaq	.LC12(%rip), %rdx
	leaq	6672(%rbp), %rax
	movq	%rcx, %r8
	movq	%rax, %rcx
.LEHB187:
	call	_ZNSt7__cxx1112basic_stringIcSt11char_traitsIcESaIcEEC1IS3_EEPKcRKS3_
.LEHE187:
	leaq	6560(%rbp), %rdx
	leaq	6672(%rbp), %rax
	movq	%rax, %rcx
.LEHB188:
	call	_Z6setVarNSt7__cxx1112basic_stringIcSt11char_traitsIcESaIcEEE5Value
.LEHE188:
	leaq	6672(%rbp), %rax
	movq	%rax, %rcx
	call	_ZNSt7__cxx1112basic_stringIcSt11char_traitsIcESaIcEED1Ev
	leaq	6719(%rbp), %rax
	movq	%rax, %rcx
	call	_ZNSt15__new_allocatorIcED2Ev
	nop
	leaq	6560(%rbp), %rax
	movq	%rax, %rcx
	call	_ZN5ValueD1Ev
	leaq	6624(%rbp), %rax
	movq	%rax, %rcx
	call	_ZNSt7__cxx1112basic_stringIcSt11char_traitsIcESaIcEED1Ev
	leaq	6671(%rbp), %rax
	movq	%rax, %rcx
	call	_ZNSt15__new_allocatorIcED2Ev
	nop
.L93:
	leaq	6767(%rbp), %rax
	movq	%rax, 12280(%rbp)
	nop
	nop
	leaq	6767(%rbp), %rcx
	leaq	.LC12(%rip), %rdx
	leaq	6720(%rbp), %rax
	movq	%rcx, %r8
	movq	%rax, %rcx
.LEHB189:
	call	_ZNSt7__cxx1112basic_stringIcSt11char_traitsIcESaIcEEC1IS3_EEPKcRKS3_
.LEHE189:
	leaq	6720(%rbp), %rax
	movq	%rax, %rcx
.LEHB190:
	call	_Z6getVarNSt7__cxx1112basic_stringIcSt11char_traitsIcESaIcEEE
.LEHE190:
	movq	%rax, %rcx
	call	_ZN5Value6getValEv
	movapd	%xmm0, %xmm6
	leaq	6768(%rbp), %rax
	movl	$2, %edx
	movq	%rax, %rcx
	call	_ZN5ValueC1Ei
	leaq	6768(%rbp), %rax
	movq	%rax, %rcx
	call	_ZN5Value6getValEv
	movq	%xmm0, %rax
	movq	%rax, %xmm5
	comisd	%xmm6, %xmm5
	setnb	%bl
	leaq	6768(%rbp), %rax
	movq	%rax, %rcx
	call	_ZN5ValueD1Ev
	leaq	6720(%rbp), %rax
	movq	%rax, %rcx
	call	_ZNSt7__cxx1112basic_stringIcSt11char_traitsIcESaIcEED1Ev
	leaq	6767(%rbp), %rax
	movq	%rax, %rcx
	call	_ZNSt15__new_allocatorIcED2Ev
	nop
	testb	%bl, %bl
	jne	.L98
	leaq	6943(%rbp), %rax
	movq	%rax, 12272(%rbp)
	nop
	nop
	leaq	6943(%rbp), %rcx
	leaq	.LC24(%rip), %rdx
	leaq	6896(%rbp), %rax
	movq	%rcx, %r8
	movq	%rax, %rcx
.LEHB191:
	call	_ZNSt7__cxx1112basic_stringIcSt11char_traitsIcESaIcEEC1IS3_EEPKcRKS3_
.LEHE191:
	leaq	6896(%rbp), %rdx
	leaq	6832(%rbp), %rax
	movq	%rax, %rcx
.LEHB192:
	call	_ZN5ValueC1ENSt7__cxx1112basic_stringIcSt11char_traitsIcESaIcEEE
.LEHE192:
	leaq	6832(%rbp), %rax
	movq	%rax, %rcx
.LEHB193:
	call	_ZN5Value5printEv
.LEHE193:
	leaq	6832(%rbp), %rax
	movq	%rax, %rcx
	call	_ZN5ValueD1Ev
	leaq	6896(%rbp), %rax
	movq	%rax, %rcx
	call	_ZNSt7__cxx1112basic_stringIcSt11char_traitsIcESaIcEED1Ev
	leaq	6943(%rbp), %rax
	movq	%rax, %rcx
	call	_ZNSt15__new_allocatorIcED2Ev
	nop
	movq	.refptr._ZSt4endlIcSt11char_traitsIcEERSt13basic_ostreamIT_T0_ES6_(%rip), %rdx
	movq	.refptr._ZSt4cout(%rip), %rax
	movq	%rax, %rcx
.LEHB194:
	call	_ZNSolsEPFRSoS_E
.LEHE194:
	leaq	6991(%rbp), %rax
	movq	%rax, 12264(%rbp)
	nop
	nop
	leaq	6991(%rbp), %rcx
	leaq	.LC21(%rip), %rdx
	leaq	6944(%rbp), %rax
	movq	%rcx, %r8
	movq	%rax, %rcx
.LEHB195:
	call	_ZNSt7__cxx1112basic_stringIcSt11char_traitsIcESaIcEEC1IS3_EEPKcRKS3_
.LEHE195:
	leaq	6944(%rbp), %rax
	movq	%rax, %rcx
.LEHB196:
	call	_Z6getVarNSt7__cxx1112basic_stringIcSt11char_traitsIcESaIcEEE
.LEHE196:
	movq	%rax, %rbx
	leaq	6992(%rbp), %rax
	movl	$2, %edx
	movq	%rax, %rcx
	call	_ZN5ValueC1Ei
	leaq	6992(%rbp), %rax
	movq	%rax, %rcx
	call	_ZN5Value6getValEv
	cvttsd2sil	%xmm0, %eax
	movl	%eax, %edx
	movq	%rbx, %rcx
.LEHB197:
	call	_ZN5ValueixEi
.LEHE197:
	movq	%rax, %rbx
	leaq	7056(%rbp), %rax
	movl	$2, %edx
	movq	%rax, %rcx
	call	_ZN5ValueC1Ei
	leaq	7056(%rbp), %rax
	movq	%rax, %rcx
	call	_ZN5Value6getValEv
	cvttsd2sil	%xmm0, %eax
	movl	%eax, %edx
	movq	%rbx, %rcx
.LEHB198:
	call	_ZN5ValueixEi
	movq	%rax, %rcx
	call	_ZN5Value5printEv
.LEHE198:
	leaq	7056(%rbp), %rax
	movq	%rax, %rcx
	call	_ZN5ValueD1Ev
	leaq	6992(%rbp), %rax
	movq	%rax, %rcx
	call	_ZN5ValueD1Ev
	leaq	6944(%rbp), %rax
	movq	%rax, %rcx
	call	_ZNSt7__cxx1112basic_stringIcSt11char_traitsIcESaIcEED1Ev
	leaq	6991(%rbp), %rax
	movq	%rax, %rcx
	call	_ZNSt15__new_allocatorIcED2Ev
	nop
	movq	.refptr._ZSt4endlIcSt11char_traitsIcEERSt13basic_ostreamIT_T0_ES6_(%rip), %rdx
	movq	.refptr._ZSt4cout(%rip), %rax
	movq	%rax, %rcx
.LEHB199:
	call	_ZNSolsEPFRSoS_E
.LEHE199:
	leaq	7231(%rbp), %rax
	movq	%rax, 12256(%rbp)
	nop
	nop
	leaq	7231(%rbp), %rcx
	leaq	.LC25(%rip), %rdx
	leaq	7184(%rbp), %rax
	movq	%rcx, %r8
	movq	%rax, %rcx
.LEHB200:
	call	_ZNSt7__cxx1112basic_stringIcSt11char_traitsIcESaIcEEC1IS3_EEPKcRKS3_
.LEHE200:
	leaq	7184(%rbp), %rdx
	leaq	7120(%rbp), %rax
	movq	%rax, %rcx
.LEHB201:
	call	_ZN5ValueC1ENSt7__cxx1112basic_stringIcSt11char_traitsIcESaIcEEE
.LEHE201:
	leaq	7120(%rbp), %rax
	movq	%rax, %rcx
.LEHB202:
	call	_ZN5Value5printEv
.LEHE202:
	leaq	7120(%rbp), %rax
	movq	%rax, %rcx
	call	_ZN5ValueD1Ev
	leaq	7184(%rbp), %rax
	movq	%rax, %rcx
	call	_ZNSt7__cxx1112basic_stringIcSt11char_traitsIcESaIcEED1Ev
	leaq	7231(%rbp), %rax
	movq	%rax, %rcx
	call	_ZNSt15__new_allocatorIcED2Ev
	nop
	movq	.refptr._ZSt4endlIcSt11char_traitsIcEERSt13basic_ostreamIT_T0_ES6_(%rip), %rdx
	movq	.refptr._ZSt4cout(%rip), %rax
	movq	%rax, %rcx
.LEHB203:
	call	_ZNSolsEPFRSoS_E
	movl	$48, %ecx
	call	_Znwy
.LEHE203:
	movq	%rax, %rbx
	pxor	%xmm0, %xmm0
	movups	%xmm0, (%rbx)
	movups	%xmm0, 16(%rbx)
	movups	%xmm0, 32(%rbx)
	movq	%rbx, %rcx
	call	_ZNSt3mapINSt7__cxx1112basic_stringIcSt11char_traitsIcESaIcEEE5ValueSt4lessIS5_ESaISt4pairIKS5_S6_EEEC1Ev
	movl	$0, %esi
	leaq	7232(%rbp), %rax
	movq	%rbx, %rdx
	movq	%rax, %rcx
	call	_ZN5ValueC1EPSt3mapINSt7__cxx1112basic_stringIcSt11char_traitsIcESaIcEEES_St4lessIS6_ESaISt4pairIKS6_S_EEE
	leaq	7343(%rbp), %rax
	movq	%rax, 12248(%rbp)
	nop
	nop
	leaq	7343(%rbp), %rcx
	leaq	.LC26(%rip), %rdx
	leaq	7296(%rbp), %rax
	movq	%rcx, %r8
	movq	%rax, %rcx
.LEHB204:
	call	_ZNSt7__cxx1112basic_stringIcSt11char_traitsIcESaIcEEC1IS3_EEPKcRKS3_
.LEHE204:
	leaq	7232(%rbp), %rdx
	leaq	7296(%rbp), %rax
	movq	%rax, %rcx
.LEHB205:
	call	_Z6setVarNSt7__cxx1112basic_stringIcSt11char_traitsIcESaIcEEE5Value
.LEHE205:
	leaq	7296(%rbp), %rax
	movq	%rax, %rcx
	call	_ZNSt7__cxx1112basic_stringIcSt11char_traitsIcESaIcEED1Ev
	leaq	7343(%rbp), %rax
	movq	%rax, %rcx
	call	_ZNSt15__new_allocatorIcED2Ev
	nop
	leaq	7232(%rbp), %rax
	movq	%rax, %rcx
	call	_ZN5ValueD1Ev
	testb	%sil, %sil
	je	.L99
	movl	$48, %edx
	movq	%rbx, %rcx
	call	_ZdlPvy
.L99:
	leaq	7344(%rbp), %rax
	movl	$0, %edx
	movq	%rax, %rcx
	call	_ZN5ValueC1Ei
	leaq	7455(%rbp), %rax
	movq	%rax, 12240(%rbp)
	nop
	nop
	leaq	7455(%rbp), %rcx
	leaq	.LC26(%rip), %rdx
	leaq	7408(%rbp), %rax
	movq	%rcx, %r8
	movq	%rax, %rcx
.LEHB206:
	call	_ZNSt7__cxx1112basic_stringIcSt11char_traitsIcESaIcEEC1IS3_EEPKcRKS3_
.LEHE206:
	leaq	7408(%rbp), %rax
	movq	%rax, %rcx
.LEHB207:
	call	_Z6getVarNSt7__cxx1112basic_stringIcSt11char_traitsIcESaIcEEE
.LEHE207:
	movq	48(%rax), %rbx
	leaq	7503(%rbp), %rax
	movq	%rax, 12232(%rbp)
	nop
	nop
	leaq	7503(%rbp), %rcx
	leaq	.LC27(%rip), %rdx
	leaq	7456(%rbp), %rax
	movq	%rcx, %r8
	movq	%rax, %rcx
.LEHB208:
	call	_ZNSt7__cxx1112basic_stringIcSt11char_traitsIcESaIcEEC1IS3_EEPKcRKS3_
.LEHE208:
	leaq	7456(%rbp), %rax
	movq	%rax, %rdx
	movq	%rbx, %rcx
.LEHB209:
	call	_ZNSt3mapINSt7__cxx1112basic_stringIcSt11char_traitsIcESaIcEEE5ValueSt4lessIS5_ESaISt4pairIKS5_S6_EEEixEOS5_
.LEHE209:
	movq	%rax, %rcx
	leaq	7344(%rbp), %rax
	movq	%rax, %rdx
	call	_ZN5ValueaSEOS_
	leaq	7456(%rbp), %rax
	movq	%rax, %rcx
	call	_ZNSt7__cxx1112basic_stringIcSt11char_traitsIcESaIcEED1Ev
	leaq	7503(%rbp), %rax
	movq	%rax, %rcx
	call	_ZNSt15__new_allocatorIcED2Ev
	nop
	leaq	7408(%rbp), %rax
	movq	%rax, %rcx
	call	_ZNSt7__cxx1112basic_stringIcSt11char_traitsIcESaIcEED1Ev
	leaq	7455(%rbp), %rax
	movq	%rax, %rcx
	call	_ZNSt15__new_allocatorIcED2Ev
	nop
	leaq	7344(%rbp), %rax
	movq	%rax, %rcx
	call	_ZN5ValueD1Ev
	leaq	7504(%rbp), %rax
	movl	$0, %edx
	movq	%rax, %rcx
	call	_ZN5ValueC1Ei
	leaq	7615(%rbp), %rax
	movq	%rax, 12224(%rbp)
	nop
	nop
	leaq	7615(%rbp), %rcx
	leaq	.LC26(%rip), %rdx
	leaq	7568(%rbp), %rax
	movq	%rcx, %r8
	movq	%rax, %rcx
.LEHB210:
	call	_ZNSt7__cxx1112basic_stringIcSt11char_traitsIcESaIcEEC1IS3_EEPKcRKS3_
.LEHE210:
	leaq	7568(%rbp), %rax
	movq	%rax, %rcx
.LEHB211:
	call	_Z6getVarNSt7__cxx1112basic_stringIcSt11char_traitsIcESaIcEEE
.LEHE211:
	movq	48(%rax), %rbx
	leaq	7663(%rbp), %rax
	movq	%rax, 12216(%rbp)
	nop
	nop
	leaq	7663(%rbp), %rcx
	leaq	.LC28(%rip), %rdx
	leaq	7616(%rbp), %rax
	movq	%rcx, %r8
	movq	%rax, %rcx
.LEHB212:
	call	_ZNSt7__cxx1112basic_stringIcSt11char_traitsIcESaIcEEC1IS3_EEPKcRKS3_
.LEHE212:
	leaq	7616(%rbp), %rax
	movq	%rax, %rdx
	movq	%rbx, %rcx
.LEHB213:
	call	_ZNSt3mapINSt7__cxx1112basic_stringIcSt11char_traitsIcESaIcEEE5ValueSt4lessIS5_ESaISt4pairIKS5_S6_EEEixEOS5_
.LEHE213:
	movq	%rax, %rcx
	leaq	7504(%rbp), %rax
	movq	%rax, %rdx
	call	_ZN5ValueaSEOS_
	leaq	7616(%rbp), %rax
	movq	%rax, %rcx
	call	_ZNSt7__cxx1112basic_stringIcSt11char_traitsIcESaIcEED1Ev
	leaq	7663(%rbp), %rax
	movq	%rax, %rcx
	call	_ZNSt15__new_allocatorIcED2Ev
	nop
	leaq	7568(%rbp), %rax
	movq	%rax, %rcx
	call	_ZNSt7__cxx1112basic_stringIcSt11char_traitsIcESaIcEED1Ev
	leaq	7615(%rbp), %rax
	movq	%rax, %rcx
	call	_ZNSt15__new_allocatorIcED2Ev
	nop
	leaq	7504(%rbp), %rax
	movq	%rax, %rcx
	call	_ZN5ValueD1Ev
	leaq	7664(%rbp), %rax
	movl	$100, %edx
	movq	%rax, %rcx
	call	_ZN5ValueC1Ei
	leaq	7775(%rbp), %rax
	movq	%rax, 12208(%rbp)
	nop
	nop
	leaq	7775(%rbp), %rcx
	leaq	.LC26(%rip), %rdx
	leaq	7728(%rbp), %rax
	movq	%rcx, %r8
	movq	%rax, %rcx
.LEHB214:
	call	_ZNSt7__cxx1112basic_stringIcSt11char_traitsIcESaIcEEC1IS3_EEPKcRKS3_
.LEHE214:
	leaq	7728(%rbp), %rax
	movq	%rax, %rcx
.LEHB215:
	call	_Z6getVarNSt7__cxx1112basic_stringIcSt11char_traitsIcESaIcEEE
.LEHE215:
	movq	48(%rax), %rbx
	leaq	7823(%rbp), %rax
	movq	%rax, 12200(%rbp)
	nop
	nop
	leaq	7823(%rbp), %rcx
	leaq	.LC29(%rip), %rdx
	leaq	7776(%rbp), %rax
	movq	%rcx, %r8
	movq	%rax, %rcx
.LEHB216:
	call	_ZNSt7__cxx1112basic_stringIcSt11char_traitsIcESaIcEEC1IS3_EEPKcRKS3_
.LEHE216:
	leaq	7776(%rbp), %rax
	movq	%rax, %rdx
	movq	%rbx, %rcx
.LEHB217:
	call	_ZNSt3mapINSt7__cxx1112basic_stringIcSt11char_traitsIcESaIcEEE5ValueSt4lessIS5_ESaISt4pairIKS5_S6_EEEixEOS5_
.LEHE217:
	movq	%rax, %rcx
	leaq	7664(%rbp), %rax
	movq	%rax, %rdx
	call	_ZN5ValueaSEOS_
	leaq	7776(%rbp), %rax
	movq	%rax, %rcx
	call	_ZNSt7__cxx1112basic_stringIcSt11char_traitsIcESaIcEED1Ev
	leaq	7823(%rbp), %rax
	movq	%rax, %rcx
	call	_ZNSt15__new_allocatorIcED2Ev
	nop
	leaq	7728(%rbp), %rax
	movq	%rax, %rcx
	call	_ZNSt7__cxx1112basic_stringIcSt11char_traitsIcESaIcEED1Ev
	leaq	7775(%rbp), %rax
	movq	%rax, %rcx
	call	_ZNSt15__new_allocatorIcED2Ev
	nop
	leaq	7664(%rbp), %rax
	movq	%rax, %rcx
	call	_ZN5ValueD1Ev
	leaq	7824(%rbp), %rax
	movl	$1, %edx
	movq	%rax, %rcx
	call	_ZN5ValueC1Ei
	leaq	7935(%rbp), %rax
	movq	%rax, 12192(%rbp)
	nop
	nop
	leaq	7935(%rbp), %rcx
	leaq	.LC26(%rip), %rdx
	leaq	7888(%rbp), %rax
	movq	%rcx, %r8
	movq	%rax, %rcx
.LEHB218:
	call	_ZNSt7__cxx1112basic_stringIcSt11char_traitsIcESaIcEEC1IS3_EEPKcRKS3_
.LEHE218:
	leaq	7888(%rbp), %rax
	movq	%rax, %rcx
.LEHB219:
	call	_Z6getVarNSt7__cxx1112basic_stringIcSt11char_traitsIcESaIcEEE
.LEHE219:
	movq	48(%rax), %rbx
	leaq	7983(%rbp), %rax
	movq	%rax, 12184(%rbp)
	nop
	nop
	leaq	7983(%rbp), %rcx
	leaq	.LC30(%rip), %rdx
	leaq	7936(%rbp), %rax
	movq	%rcx, %r8
	movq	%rax, %rcx
.LEHB220:
	call	_ZNSt7__cxx1112basic_stringIcSt11char_traitsIcESaIcEEC1IS3_EEPKcRKS3_
.LEHE220:
	leaq	7936(%rbp), %rax
	movq	%rax, %rdx
	movq	%rbx, %rcx
.LEHB221:
	call	_ZNSt3mapINSt7__cxx1112basic_stringIcSt11char_traitsIcESaIcEEE5ValueSt4lessIS5_ESaISt4pairIKS5_S6_EEEixEOS5_
.LEHE221:
	movq	%rax, %rcx
	leaq	7824(%rbp), %rax
	movq	%rax, %rdx
	call	_ZN5ValueaSEOS_
	leaq	7936(%rbp), %rax
	movq	%rax, %rcx
	call	_ZNSt7__cxx1112basic_stringIcSt11char_traitsIcESaIcEED1Ev
	leaq	7983(%rbp), %rax
	movq	%rax, %rcx
	call	_ZNSt15__new_allocatorIcED2Ev
	nop
	leaq	7888(%rbp), %rax
	movq	%rax, %rcx
	call	_ZNSt7__cxx1112basic_stringIcSt11char_traitsIcESaIcEED1Ev
	leaq	7935(%rbp), %rax
	movq	%rax, %rcx
	call	_ZNSt15__new_allocatorIcED2Ev
	nop
	leaq	7824(%rbp), %rax
	movq	%rax, %rcx
	call	_ZN5ValueD1Ev
	leaq	7984(%rbp), %rax
	movl	$4, %edx
	movq	%rax, %rcx
	call	_ZN5ValueC1Ei
	leaq	8095(%rbp), %rax
	movq	%rax, 12176(%rbp)
	nop
	nop
	leaq	8095(%rbp), %rcx
	leaq	.LC31(%rip), %rdx
	leaq	8048(%rbp), %rax
	movq	%rcx, %r8
	movq	%rax, %rcx
.LEHB222:
	call	_ZNSt7__cxx1112basic_stringIcSt11char_traitsIcESaIcEEC1IS3_EEPKcRKS3_
.LEHE222:
	leaq	7984(%rbp), %rdx
	leaq	8048(%rbp), %rax
	movq	%rax, %rcx
.LEHB223:
	call	_Z6setVarNSt7__cxx1112basic_stringIcSt11char_traitsIcESaIcEEE5Value
.LEHE223:
	leaq	8048(%rbp), %rax
	movq	%rax, %rcx
	call	_ZNSt7__cxx1112basic_stringIcSt11char_traitsIcESaIcEED1Ev
	leaq	8095(%rbp), %rax
	movq	%rax, %rcx
	call	_ZNSt15__new_allocatorIcED2Ev
	nop
	leaq	7984(%rbp), %rax
	movq	%rax, %rcx
	call	_ZN5ValueD1Ev
	leaq	8096(%rbp), %rax
	movl	$3, %edx
	movq	%rax, %rcx
	call	_ZN5ValueC1Ei
	leaq	8207(%rbp), %rax
	movq	%rax, 12168(%rbp)
	nop
	nop
	leaq	8207(%rbp), %rcx
	leaq	.LC32(%rip), %rdx
	leaq	8160(%rbp), %rax
	movq	%rcx, %r8
	movq	%rax, %rcx
.LEHB224:
	call	_ZNSt7__cxx1112basic_stringIcSt11char_traitsIcESaIcEEC1IS3_EEPKcRKS3_
.LEHE224:
	leaq	8096(%rbp), %rdx
	leaq	8160(%rbp), %rax
	movq	%rax, %rcx
.LEHB225:
	call	_Z6setVarNSt7__cxx1112basic_stringIcSt11char_traitsIcESaIcEEE5Value
.LEHE225:
	leaq	8160(%rbp), %rax
	movq	%rax, %rcx
	call	_ZNSt7__cxx1112basic_stringIcSt11char_traitsIcESaIcEED1Ev
	leaq	8207(%rbp), %rax
	movq	%rax, %rcx
	call	_ZNSt15__new_allocatorIcED2Ev
	nop
	leaq	8096(%rbp), %rax
	movq	%rax, %rcx
	call	_ZN5ValueD1Ev
	leaq	8319(%rbp), %rax
	movq	%rax, 12160(%rbp)
	nop
	nop
	leaq	8319(%rbp), %rcx
	leaq	.LC33(%rip), %rdx
	leaq	8272(%rbp), %rax
	movq	%rcx, %r8
	movq	%rax, %rcx
.LEHB226:
	call	_ZNSt7__cxx1112basic_stringIcSt11char_traitsIcESaIcEEC1IS3_EEPKcRKS3_
.LEHE226:
	leaq	8272(%rbp), %rdx
	leaq	8208(%rbp), %rax
	movq	%rax, %rcx
.LEHB227:
	call	_ZN5ValueC1ENSt7__cxx1112basic_stringIcSt11char_traitsIcESaIcEEE
.LEHE227:
	leaq	8208(%rbp), %rax
	movq	%rax, %rcx
.LEHB228:
	call	_ZN5Value5printEv
.LEHE228:
	leaq	8208(%rbp), %rax
	movq	%rax, %rcx
	call	_ZN5ValueD1Ev
	leaq	8272(%rbp), %rax
	movq	%rax, %rcx
	call	_ZNSt7__cxx1112basic_stringIcSt11char_traitsIcESaIcEED1Ev
	leaq	8319(%rbp), %rax
	movq	%rax, %rcx
	call	_ZNSt15__new_allocatorIcED2Ev
	nop
	movq	.refptr._ZSt4endlIcSt11char_traitsIcEERSt13basic_ostreamIT_T0_ES6_(%rip), %rdx
	movq	.refptr._ZSt4cout(%rip), %rax
	movq	%rax, %rcx
.LEHB229:
	call	_ZNSolsEPFRSoS_E
.LEHE229:
	jmp	.L100
.L105:
	leaq	8367(%rbp), %rax
	movq	%rax, 12152(%rbp)
	nop
	nop
	leaq	8367(%rbp), %rcx
	leaq	.LC26(%rip), %rdx
	leaq	8320(%rbp), %rax
	movq	%rcx, %r8
	movq	%rax, %rcx
.LEHB230:
	call	_ZNSt7__cxx1112basic_stringIcSt11char_traitsIcESaIcEEC1IS3_EEPKcRKS3_
.LEHE230:
	leaq	8320(%rbp), %rax
	movq	%rax, %rcx
.LEHB231:
	call	_Z6getVarNSt7__cxx1112basic_stringIcSt11char_traitsIcESaIcEEE
.LEHE231:
	movq	48(%rax), %rbx
	leaq	8415(%rbp), %rax
	movq	%rax, 12144(%rbp)
	nop
	nop
	leaq	8415(%rbp), %rcx
	leaq	.LC27(%rip), %rdx
	leaq	8368(%rbp), %rax
	movq	%rcx, %r8
	movq	%rax, %rcx
.LEHB232:
	call	_ZNSt7__cxx1112basic_stringIcSt11char_traitsIcESaIcEEC1IS3_EEPKcRKS3_
.LEHE232:
	leaq	8368(%rbp), %rax
	movq	%rax, %rdx
	movq	%rbx, %rcx
.LEHB233:
	call	_ZNSt3mapINSt7__cxx1112basic_stringIcSt11char_traitsIcESaIcEEE5ValueSt4lessIS5_ESaISt4pairIKS5_S6_EEEixEOS5_
.LEHE233:
	movq	%rax, %rcx
	call	_ZN5Value6getValEv
	movq	%xmm0, %rbx
	leaq	8463(%rbp), %rax
	movq	%rax, 12136(%rbp)
	nop
	nop
	leaq	8463(%rbp), %rcx
	leaq	.LC31(%rip), %rdx
	leaq	8416(%rbp), %rax
	movq	%rcx, %r8
	movq	%rax, %rcx
.LEHB234:
	call	_ZNSt7__cxx1112basic_stringIcSt11char_traitsIcESaIcEEC1IS3_EEPKcRKS3_
.LEHE234:
	leaq	8416(%rbp), %rax
	movq	%rax, %rcx
.LEHB235:
	call	_Z6getVarNSt7__cxx1112basic_stringIcSt11char_traitsIcESaIcEEE
.LEHE235:
	movq	%rax, %rcx
	call	_ZN5Value6getValEv
	movq	%rbx, %xmm2
	ucomisd	%xmm0, %xmm2
	setnp	%al
	movl	$0, %edx
	movq	%rbx, %xmm3
	ucomisd	%xmm0, %xmm3
	cmove	%eax, %edx
	movl	%edx, %ebx
	leaq	8416(%rbp), %rax
	movq	%rax, %rcx
	call	_ZNSt7__cxx1112basic_stringIcSt11char_traitsIcESaIcEED1Ev
	leaq	8463(%rbp), %rax
	movq	%rax, %rcx
	call	_ZNSt15__new_allocatorIcED2Ev
	nop
	leaq	8368(%rbp), %rax
	movq	%rax, %rcx
	call	_ZNSt7__cxx1112basic_stringIcSt11char_traitsIcESaIcEED1Ev
	leaq	8415(%rbp), %rax
	movq	%rax, %rcx
	call	_ZNSt15__new_allocatorIcED2Ev
	nop
	leaq	8320(%rbp), %rax
	movq	%rax, %rcx
	call	_ZNSt7__cxx1112basic_stringIcSt11char_traitsIcESaIcEED1Ev
	leaq	8367(%rbp), %rax
	movq	%rax, %rcx
	call	_ZNSt15__new_allocatorIcED2Ev
	nop
	testb	%bl, %bl
	je	.L101
	leaq	8511(%rbp), %rax
	movq	%rax, 12128(%rbp)
	nop
	nop
	leaq	8511(%rbp), %rcx
	leaq	.LC26(%rip), %rdx
	leaq	8464(%rbp), %rax
	movq	%rcx, %r8
	movq	%rax, %rcx
.LEHB236:
	call	_ZNSt7__cxx1112basic_stringIcSt11char_traitsIcESaIcEEC1IS3_EEPKcRKS3_
.LEHE236:
	leaq	8464(%rbp), %rax
	movq	%rax, %rcx
.LEHB237:
	call	_Z6getVarNSt7__cxx1112basic_stringIcSt11char_traitsIcESaIcEEE
.LEHE237:
	movq	48(%rax), %rbx
	leaq	8559(%rbp), %rax
	movq	%rax, 12120(%rbp)
	nop
	nop
	leaq	8559(%rbp), %rcx
	leaq	.LC28(%rip), %rdx
	leaq	8512(%rbp), %rax
	movq	%rcx, %r8
	movq	%rax, %rcx
.LEHB238:
	call	_ZNSt7__cxx1112basic_stringIcSt11char_traitsIcESaIcEEC1IS3_EEPKcRKS3_
.LEHE238:
	leaq	8512(%rbp), %rax
	movq	%rax, %rdx
	movq	%rbx, %rcx
.LEHB239:
	call	_ZNSt3mapINSt7__cxx1112basic_stringIcSt11char_traitsIcESaIcEEE5ValueSt4lessIS5_ESaISt4pairIKS5_S6_EEEixEOS5_
.LEHE239:
	movq	%rax, %rcx
	call	_ZN5Value6getValEv
	movq	%xmm0, %rbx
	leaq	8607(%rbp), %rax
	movq	%rax, 12112(%rbp)
	nop
	nop
	leaq	8607(%rbp), %rcx
	leaq	.LC32(%rip), %rdx
	leaq	8560(%rbp), %rax
	movq	%rcx, %r8
	movq	%rax, %rcx
.LEHB240:
	call	_ZNSt7__cxx1112basic_stringIcSt11char_traitsIcESaIcEEC1IS3_EEPKcRKS3_
.LEHE240:
	leaq	8560(%rbp), %rax
	movq	%rax, %rcx
.LEHB241:
	call	_Z6getVarNSt7__cxx1112basic_stringIcSt11char_traitsIcESaIcEEE
.LEHE241:
	movq	%rax, %rcx
	call	_ZN5Value6getValEv
	movq	%rbx, %xmm4
	ucomisd	%xmm0, %xmm4
	setnp	%al
	movl	$0, %edx
	movq	%rbx, %xmm5
	ucomisd	%xmm0, %xmm5
	cmove	%eax, %edx
	movl	%edx, %ebx
	leaq	8560(%rbp), %rax
	movq	%rax, %rcx
	call	_ZNSt7__cxx1112basic_stringIcSt11char_traitsIcESaIcEED1Ev
	leaq	8607(%rbp), %rax
	movq	%rax, %rcx
	call	_ZNSt15__new_allocatorIcED2Ev
	nop
	leaq	8512(%rbp), %rax
	movq	%rax, %rcx
	call	_ZNSt7__cxx1112basic_stringIcSt11char_traitsIcESaIcEED1Ev
	leaq	8559(%rbp), %rax
	movq	%rax, %rcx
	call	_ZNSt15__new_allocatorIcED2Ev
	nop
	leaq	8464(%rbp), %rax
	movq	%rax, %rcx
	call	_ZNSt7__cxx1112basic_stringIcSt11char_traitsIcESaIcEED1Ev
	leaq	8511(%rbp), %rax
	movq	%rax, %rcx
	call	_ZNSt15__new_allocatorIcED2Ev
	nop
	testb	%bl, %bl
	je	.L101
	leaq	8719(%rbp), %rax
	movq	%rax, 12104(%rbp)
	nop
	nop
	leaq	8719(%rbp), %rcx
	leaq	.LC34(%rip), %rdx
	leaq	8672(%rbp), %rax
	movq	%rcx, %r8
	movq	%rax, %rcx
.LEHB242:
	call	_ZNSt7__cxx1112basic_stringIcSt11char_traitsIcESaIcEEC1IS3_EEPKcRKS3_
.LEHE242:
	leaq	8672(%rbp), %rdx
	leaq	8608(%rbp), %rax
	movq	%rax, %rcx
.LEHB243:
	call	_ZN5ValueC1ENSt7__cxx1112basic_stringIcSt11char_traitsIcESaIcEEE
.LEHE243:
	leaq	8608(%rbp), %rax
	movq	%rax, %rcx
.LEHB244:
	call	_ZN5Value5printEv
.LEHE244:
	leaq	8608(%rbp), %rax
	movq	%rax, %rcx
	call	_ZN5ValueD1Ev
	leaq	8672(%rbp), %rax
	movq	%rax, %rcx
	call	_ZNSt7__cxx1112basic_stringIcSt11char_traitsIcESaIcEED1Ev
	leaq	8719(%rbp), %rax
	movq	%rax, %rcx
	call	_ZNSt15__new_allocatorIcED2Ev
	nop
	movq	.refptr._ZSt4endlIcSt11char_traitsIcEERSt13basic_ostreamIT_T0_ES6_(%rip), %rdx
	movq	.refptr._ZSt4cout(%rip), %rax
	movq	%rax, %rcx
.LEHB245:
	call	_ZNSolsEPFRSoS_E
.LEHE245:
	leaq	8720(%rbp), %rax
	movl	$0, %edx
	movq	%rax, %rcx
	call	_ZN5ValueC1Ei
	leaq	8831(%rbp), %rax
	movq	%rax, 12096(%rbp)
	nop
	nop
	leaq	8831(%rbp), %rcx
	leaq	.LC26(%rip), %rdx
	leaq	8784(%rbp), %rax
	movq	%rcx, %r8
	movq	%rax, %rcx
.LEHB246:
	call	_ZNSt7__cxx1112basic_stringIcSt11char_traitsIcESaIcEEC1IS3_EEPKcRKS3_
.LEHE246:
	leaq	8784(%rbp), %rax
	movq	%rax, %rcx
.LEHB247:
	call	_Z6getVarNSt7__cxx1112basic_stringIcSt11char_traitsIcESaIcEEE
.LEHE247:
	movq	48(%rax), %rbx
	leaq	8879(%rbp), %rax
	movq	%rax, 12088(%rbp)
	nop
	nop
	leaq	8879(%rbp), %rcx
	leaq	.LC30(%rip), %rdx
	leaq	8832(%rbp), %rax
	movq	%rcx, %r8
	movq	%rax, %rcx
.LEHB248:
	call	_ZNSt7__cxx1112basic_stringIcSt11char_traitsIcESaIcEEC1IS3_EEPKcRKS3_
.LEHE248:
	leaq	8832(%rbp), %rax
	movq	%rax, %rdx
	movq	%rbx, %rcx
.LEHB249:
	call	_ZNSt3mapINSt7__cxx1112basic_stringIcSt11char_traitsIcESaIcEEE5ValueSt4lessIS5_ESaISt4pairIKS5_S6_EEEixEOS5_
.LEHE249:
	movq	%rax, %rcx
	leaq	8720(%rbp), %rax
	movq	%rax, %rdx
	call	_ZN5ValueaSEOS_
	leaq	8832(%rbp), %rax
	movq	%rax, %rcx
	call	_ZNSt7__cxx1112basic_stringIcSt11char_traitsIcESaIcEED1Ev
	leaq	8879(%rbp), %rax
	movq	%rax, %rcx
	call	_ZNSt15__new_allocatorIcED2Ev
	nop
	leaq	8784(%rbp), %rax
	movq	%rax, %rcx
	call	_ZNSt7__cxx1112basic_stringIcSt11char_traitsIcESaIcEED1Ev
	leaq	8831(%rbp), %rax
	movq	%rax, %rcx
	call	_ZNSt15__new_allocatorIcED2Ev
	nop
	leaq	8720(%rbp), %rax
	movq	%rax, %rcx
	call	_ZN5ValueD1Ev
	jmp	.L102
.L101:
	leaq	8927(%rbp), %rax
	movq	%rax, 12080(%rbp)
	nop
	nop
	leaq	8927(%rbp), %rcx
	leaq	.LC26(%rip), %rdx
	leaq	8880(%rbp), %rax
	movq	%rcx, %r8
	movq	%rax, %rcx
.LEHB250:
	call	_ZNSt7__cxx1112basic_stringIcSt11char_traitsIcESaIcEEC1IS3_EEPKcRKS3_
.LEHE250:
	leaq	8880(%rbp), %rax
	movq	%rax, %rcx
.LEHB251:
	call	_Z6getVarNSt7__cxx1112basic_stringIcSt11char_traitsIcESaIcEEE
.LEHE251:
	movq	48(%rax), %rbx
	leaq	8975(%rbp), %rax
	movq	%rax, 12072(%rbp)
	nop
	nop
	leaq	8975(%rbp), %rcx
	leaq	.LC29(%rip), %rdx
	leaq	8928(%rbp), %rax
	movq	%rcx, %r8
	movq	%rax, %rcx
.LEHB252:
	call	_ZNSt7__cxx1112basic_stringIcSt11char_traitsIcESaIcEEC1IS3_EEPKcRKS3_
.LEHE252:
	leaq	8928(%rbp), %rax
	movq	%rax, %rdx
	movq	%rbx, %rcx
.LEHB253:
	call	_ZNSt3mapINSt7__cxx1112basic_stringIcSt11char_traitsIcESaIcEEE5ValueSt4lessIS5_ESaISt4pairIKS5_S6_EEEixEOS5_
.LEHE253:
	movq	%rax, %rcx
	call	_ZN5Value6getValEv
	movapd	%xmm0, %xmm6
	leaq	8976(%rbp), %rax
	movl	$10, %edx
	movq	%rax, %rcx
	call	_ZN5ValueC1Ei
	leaq	8976(%rbp), %rax
	movq	%rax, %rcx
	call	_ZN5Value6getValEv
	movq	%xmm0, %rax
	movq	%rax, %xmm2
	comisd	%xmm6, %xmm2
	seta	%bl
	leaq	8976(%rbp), %rax
	movq	%rax, %rcx
	call	_ZN5ValueD1Ev
	leaq	8928(%rbp), %rax
	movq	%rax, %rcx
	call	_ZNSt7__cxx1112basic_stringIcSt11char_traitsIcESaIcEED1Ev
	leaq	8975(%rbp), %rax
	movq	%rax, %rcx
	call	_ZNSt15__new_allocatorIcED2Ev
	nop
	leaq	8880(%rbp), %rax
	movq	%rax, %rcx
	call	_ZNSt7__cxx1112basic_stringIcSt11char_traitsIcESaIcEED1Ev
	leaq	8927(%rbp), %rax
	movq	%rax, %rcx
	call	_ZNSt15__new_allocatorIcED2Ev
	nop
	testb	%bl, %bl
	je	.L103
	leaq	9151(%rbp), %rax
	movq	%rax, 12064(%rbp)
	nop
	nop
	leaq	9151(%rbp), %rcx
	leaq	.LC35(%rip), %rdx
	leaq	9104(%rbp), %rax
	movq	%rcx, %r8
	movq	%rax, %rcx
.LEHB254:
	call	_ZNSt7__cxx1112basic_stringIcSt11char_traitsIcESaIcEEC1IS3_EEPKcRKS3_
.LEHE254:
	leaq	9104(%rbp), %rdx
	leaq	9040(%rbp), %rax
	movq	%rax, %rcx
.LEHB255:
	call	_ZN5ValueC1ENSt7__cxx1112basic_stringIcSt11char_traitsIcESaIcEEE
.LEHE255:
	leaq	9040(%rbp), %rax
	movq	%rax, %rcx
.LEHB256:
	call	_ZN5Value5printEv
.LEHE256:
	leaq	9040(%rbp), %rax
	movq	%rax, %rcx
	call	_ZN5ValueD1Ev
	leaq	9104(%rbp), %rax
	movq	%rax, %rcx
	call	_ZNSt7__cxx1112basic_stringIcSt11char_traitsIcESaIcEED1Ev
	leaq	9151(%rbp), %rax
	movq	%rax, %rcx
	call	_ZNSt15__new_allocatorIcED2Ev
	nop
	movq	.refptr._ZSt4endlIcSt11char_traitsIcEERSt13basic_ostreamIT_T0_ES6_(%rip), %rdx
	movq	.refptr._ZSt4cout(%rip), %rax
	movq	%rax, %rcx
.LEHB257:
	call	_ZNSolsEPFRSoS_E
.LEHE257:
	leaq	9152(%rbp), %rax
	movl	$0, %edx
	movq	%rax, %rcx
	call	_ZN5ValueC1Ei
	leaq	9263(%rbp), %rax
	movq	%rax, 12056(%rbp)
	nop
	nop
	leaq	9263(%rbp), %rcx
	leaq	.LC26(%rip), %rdx
	leaq	9216(%rbp), %rax
	movq	%rcx, %r8
	movq	%rax, %rcx
.LEHB258:
	call	_ZNSt7__cxx1112basic_stringIcSt11char_traitsIcESaIcEEC1IS3_EEPKcRKS3_
.LEHE258:
	leaq	9216(%rbp), %rax
	movq	%rax, %rcx
.LEHB259:
	call	_Z6getVarNSt7__cxx1112basic_stringIcSt11char_traitsIcESaIcEEE
.LEHE259:
	movq	48(%rax), %rbx
	leaq	9311(%rbp), %rax
	movq	%rax, 12048(%rbp)
	nop
	nop
	leaq	9311(%rbp), %rcx
	leaq	.LC30(%rip), %rdx
	leaq	9264(%rbp), %rax
	movq	%rcx, %r8
	movq	%rax, %rcx
.LEHB260:
	call	_ZNSt7__cxx1112basic_stringIcSt11char_traitsIcESaIcEEC1IS3_EEPKcRKS3_
.LEHE260:
	leaq	9264(%rbp), %rax
	movq	%rax, %rdx
	movq	%rbx, %rcx
.LEHB261:
	call	_ZNSt3mapINSt7__cxx1112basic_stringIcSt11char_traitsIcESaIcEEE5ValueSt4lessIS5_ESaISt4pairIKS5_S6_EEEixEOS5_
.LEHE261:
	movq	%rax, %rcx
	leaq	9152(%rbp), %rax
	movq	%rax, %rdx
	call	_ZN5ValueaSEOS_
	leaq	9264(%rbp), %rax
	movq	%rax, %rcx
	call	_ZNSt7__cxx1112basic_stringIcSt11char_traitsIcESaIcEED1Ev
	leaq	9311(%rbp), %rax
	movq	%rax, %rcx
	call	_ZNSt15__new_allocatorIcED2Ev
	nop
	leaq	9216(%rbp), %rax
	movq	%rax, %rcx
	call	_ZNSt7__cxx1112basic_stringIcSt11char_traitsIcESaIcEED1Ev
	leaq	9263(%rbp), %rax
	movq	%rax, %rcx
	call	_ZNSt15__new_allocatorIcED2Ev
	nop
	leaq	9152(%rbp), %rax
	movq	%rax, %rcx
	call	_ZN5ValueD1Ev
	jmp	.L102
.L103:
	leaq	9359(%rbp), %rax
	movq	%rax, 12040(%rbp)
	nop
	nop
	leaq	9359(%rbp), %rcx
	leaq	.LC26(%rip), %rdx
	leaq	9312(%rbp), %rax
	movq	%rcx, %r8
	movq	%rax, %rcx
.LEHB262:
	call	_ZNSt7__cxx1112basic_stringIcSt11char_traitsIcESaIcEEC1IS3_EEPKcRKS3_
.LEHE262:
	leaq	9312(%rbp), %rax
	movq	%rax, %rcx
.LEHB263:
	call	_Z6getVarNSt7__cxx1112basic_stringIcSt11char_traitsIcESaIcEEE
.LEHE263:
	movq	48(%rax), %rbx
	leaq	9407(%rbp), %rax
	movq	%rax, 12032(%rbp)
	nop
	nop
	leaq	9407(%rbp), %rcx
	leaq	.LC27(%rip), %rdx
	leaq	9360(%rbp), %rax
	movq	%rcx, %r8
	movq	%rax, %rcx
.LEHB264:
	call	_ZNSt7__cxx1112basic_stringIcSt11char_traitsIcESaIcEEC1IS3_EEPKcRKS3_
.LEHE264:
	leaq	9360(%rbp), %rax
	movq	%rax, %rdx
	movq	%rbx, %rcx
.LEHB265:
	call	_ZNSt3mapINSt7__cxx1112basic_stringIcSt11char_traitsIcESaIcEEE5ValueSt4lessIS5_ESaISt4pairIKS5_S6_EEEixEOS5_
.LEHE265:
	movq	%rax, %rcx
	call	_ZN5Value6getValEv
	movapd	%xmm0, %xmm6
	leaq	9455(%rbp), %rax
	movq	%rax, 12024(%rbp)
	nop
	nop
	leaq	9455(%rbp), %rcx
	leaq	.LC31(%rip), %rdx
	leaq	9408(%rbp), %rax
	movq	%rcx, %r8
	movq	%rax, %rcx
.LEHB266:
	call	_ZNSt7__cxx1112basic_stringIcSt11char_traitsIcESaIcEEC1IS3_EEPKcRKS3_
.LEHE266:
	leaq	9408(%rbp), %rax
	movq	%rax, %rcx
.LEHB267:
	call	_Z6getVarNSt7__cxx1112basic_stringIcSt11char_traitsIcESaIcEEE
.LEHE267:
	movq	%rax, %rcx
	call	_ZN5Value6getValEv
	movq	%xmm0, %rax
	movq	%rax, %xmm3
	comisd	%xmm6, %xmm3
	seta	%bl
	leaq	9408(%rbp), %rax
	movq	%rax, %rcx
	call	_ZNSt7__cxx1112basic_stringIcSt11char_traitsIcESaIcEED1Ev
	leaq	9455(%rbp), %rax
	movq	%rax, %rcx
	call	_ZNSt15__new_allocatorIcED2Ev
	nop
	leaq	9360(%rbp), %rax
	movq	%rax, %rcx
	call	_ZNSt7__cxx1112basic_stringIcSt11char_traitsIcESaIcEED1Ev
	leaq	9407(%rbp), %rax
	movq	%rax, %rcx
	call	_ZNSt15__new_allocatorIcED2Ev
	nop
	leaq	9312(%rbp), %rax
	movq	%rax, %rcx
	call	_ZNSt7__cxx1112basic_stringIcSt11char_traitsIcESaIcEED1Ev
	leaq	9359(%rbp), %rax
	movq	%rax, %rcx
	call	_ZNSt15__new_allocatorIcED2Ev
	nop
	testb	%bl, %bl
	je	.L104
	leaq	9567(%rbp), %rax
	movq	%rax, 12016(%rbp)
	nop
	nop
	leaq	9567(%rbp), %rcx
	leaq	.LC26(%rip), %rdx
	leaq	9520(%rbp), %rax
	movq	%rcx, %r8
	movq	%rax, %rcx
.LEHB268:
	call	_ZNSt7__cxx1112basic_stringIcSt11char_traitsIcESaIcEEC1IS3_EEPKcRKS3_
.LEHE268:
	leaq	9520(%rbp), %rax
	movq	%rax, %rcx
.LEHB269:
	call	_Z6getVarNSt7__cxx1112basic_stringIcSt11char_traitsIcESaIcEEE
.LEHE269:
	movq	48(%rax), %rbx
	leaq	9615(%rbp), %rax
	movq	%rax, 12008(%rbp)
	nop
	nop
	leaq	9615(%rbp), %rcx
	leaq	.LC27(%rip), %rdx
	leaq	9568(%rbp), %rax
	movq	%rcx, %r8
	movq	%rax, %rcx
.LEHB270:
	call	_ZNSt7__cxx1112basic_stringIcSt11char_traitsIcESaIcEEC1IS3_EEPKcRKS3_
.LEHE270:
	leaq	9568(%rbp), %rax
	movq	%rax, %rdx
	movq	%rbx, %rcx
.LEHB271:
	call	_ZNSt3mapINSt7__cxx1112basic_stringIcSt11char_traitsIcESaIcEEE5ValueSt4lessIS5_ESaISt4pairIKS5_S6_EEEixEOS5_
.LEHE271:
	movq	%rax, %rcx
	call	_ZN5Value6getValEv
	movapd	%xmm0, %xmm6
	leaq	9616(%rbp), %rax
	movl	$1, %edx
	movq	%rax, %rcx
	call	_ZN5ValueC1Ei
	leaq	9616(%rbp), %rax
	movq	%rax, %rcx
	call	_ZN5Value6getValEv
	addsd	%xmm6, %xmm0
	leaq	9456(%rbp), %rax
	movapd	%xmm0, %xmm1
	movq	%rax, %rcx
	call	_ZN5ValueC1Ed
	leaq	9727(%rbp), %rax
	movq	%rax, 12000(%rbp)
	nop
	nop
	leaq	9727(%rbp), %rcx
	leaq	.LC26(%rip), %rdx
	leaq	9680(%rbp), %rax
	movq	%rcx, %r8
	movq	%rax, %rcx
.LEHB272:
	call	_ZNSt7__cxx1112basic_stringIcSt11char_traitsIcESaIcEEC1IS3_EEPKcRKS3_
.LEHE272:
	leaq	9680(%rbp), %rax
	movq	%rax, %rcx
.LEHB273:
	call	_Z6getVarNSt7__cxx1112basic_stringIcSt11char_traitsIcESaIcEEE
.LEHE273:
	movq	48(%rax), %rbx
	leaq	9775(%rbp), %rax
	movq	%rax, 11992(%rbp)
	nop
	nop
	leaq	9775(%rbp), %rcx
	leaq	.LC27(%rip), %rdx
	leaq	9728(%rbp), %rax
	movq	%rcx, %r8
	movq	%rax, %rcx
.LEHB274:
	call	_ZNSt7__cxx1112basic_stringIcSt11char_traitsIcESaIcEEC1IS3_EEPKcRKS3_
.LEHE274:
	leaq	9728(%rbp), %rax
	movq	%rax, %rdx
	movq	%rbx, %rcx
.LEHB275:
	call	_ZNSt3mapINSt7__cxx1112basic_stringIcSt11char_traitsIcESaIcEEE5ValueSt4lessIS5_ESaISt4pairIKS5_S6_EEEixEOS5_
.LEHE275:
	movq	%rax, %rcx
	leaq	9456(%rbp), %rax
	movq	%rax, %rdx
	call	_ZN5ValueaSEOS_
	leaq	9728(%rbp), %rax
	movq	%rax, %rcx
	call	_ZNSt7__cxx1112basic_stringIcSt11char_traitsIcESaIcEED1Ev
	leaq	9775(%rbp), %rax
	movq	%rax, %rcx
	call	_ZNSt15__new_allocatorIcED2Ev
	nop
	leaq	9680(%rbp), %rax
	movq	%rax, %rcx
	call	_ZNSt7__cxx1112basic_stringIcSt11char_traitsIcESaIcEED1Ev
	leaq	9727(%rbp), %rax
	movq	%rax, %rcx
	call	_ZNSt15__new_allocatorIcED2Ev
	nop
	leaq	9456(%rbp), %rax
	movq	%rax, %rcx
	call	_ZN5ValueD1Ev
	leaq	9616(%rbp), %rax
	movq	%rax, %rcx
	call	_ZN5ValueD1Ev
	leaq	9568(%rbp), %rax
	movq	%rax, %rcx
	call	_ZNSt7__cxx1112basic_stringIcSt11char_traitsIcESaIcEED1Ev
	leaq	9615(%rbp), %rax
	movq	%rax, %rcx
	call	_ZNSt15__new_allocatorIcED2Ev
	nop
	leaq	9520(%rbp), %rax
	movq	%rax, %rcx
	call	_ZNSt7__cxx1112basic_stringIcSt11char_traitsIcESaIcEED1Ev
	leaq	9567(%rbp), %rax
	movq	%rax, %rcx
	call	_ZNSt15__new_allocatorIcED2Ev
	nop
	leaq	9887(%rbp), %rax
	movq	%rax, 11984(%rbp)
	nop
	nop
	leaq	9887(%rbp), %rcx
	leaq	.LC26(%rip), %rdx
	leaq	9840(%rbp), %rax
	movq	%rcx, %r8
	movq	%rax, %rcx
.LEHB276:
	call	_ZNSt7__cxx1112basic_stringIcSt11char_traitsIcESaIcEEC1IS3_EEPKcRKS3_
.LEHE276:
	leaq	9840(%rbp), %rax
	movq	%rax, %rcx
.LEHB277:
	call	_Z6getVarNSt7__cxx1112basic_stringIcSt11char_traitsIcESaIcEEE
.LEHE277:
	movq	48(%rax), %rbx
	leaq	9935(%rbp), %rax
	movq	%rax, 11976(%rbp)
	nop
	nop
	leaq	9935(%rbp), %rcx
	leaq	.LC29(%rip), %rdx
	leaq	9888(%rbp), %rax
	movq	%rcx, %r8
	movq	%rax, %rcx
.LEHB278:
	call	_ZNSt7__cxx1112basic_stringIcSt11char_traitsIcESaIcEEC1IS3_EEPKcRKS3_
.LEHE278:
	leaq	9888(%rbp), %rax
	movq	%rax, %rdx
	movq	%rbx, %rcx
.LEHB279:
	call	_ZNSt3mapINSt7__cxx1112basic_stringIcSt11char_traitsIcESaIcEEE5ValueSt4lessIS5_ESaISt4pairIKS5_S6_EEEixEOS5_
.LEHE279:
	movq	%rax, %rcx
	call	_ZN5Value6getValEv
	movq	%xmm0, %rbx
	leaq	9936(%rbp), %rax
	movl	$8, %edx
	movq	%rax, %rcx
	call	_ZN5ValueC1Ei
	leaq	9936(%rbp), %rax
	movq	%rax, %rcx
	call	_ZN5Value6getValEv
	movq	%rbx, %xmm1
	subsd	%xmm0, %xmm1
	leaq	9776(%rbp), %rax
	movq	%rax, %rcx
	call	_ZN5ValueC1Ed
	leaq	10047(%rbp), %rax
	movq	%rax, 11968(%rbp)
	nop
	nop
	leaq	10047(%rbp), %rcx
	leaq	.LC26(%rip), %rdx
	leaq	10000(%rbp), %rax
	movq	%rcx, %r8
	movq	%rax, %rcx
.LEHB280:
	call	_ZNSt7__cxx1112basic_stringIcSt11char_traitsIcESaIcEEC1IS3_EEPKcRKS3_
.LEHE280:
	leaq	10000(%rbp), %rax
	movq	%rax, %rcx
.LEHB281:
	call	_Z6getVarNSt7__cxx1112basic_stringIcSt11char_traitsIcESaIcEEE
.LEHE281:
	movq	48(%rax), %rbx
	leaq	10095(%rbp), %rax
	movq	%rax, 11960(%rbp)
	nop
	nop
	leaq	10095(%rbp), %rcx
	leaq	.LC29(%rip), %rdx
	leaq	10048(%rbp), %rax
	movq	%rcx, %r8
	movq	%rax, %rcx
.LEHB282:
	call	_ZNSt7__cxx1112basic_stringIcSt11char_traitsIcESaIcEEC1IS3_EEPKcRKS3_
.LEHE282:
	leaq	10048(%rbp), %rax
	movq	%rax, %rdx
	movq	%rbx, %rcx
.LEHB283:
	call	_ZNSt3mapINSt7__cxx1112basic_stringIcSt11char_traitsIcESaIcEEE5ValueSt4lessIS5_ESaISt4pairIKS5_S6_EEEixEOS5_
.LEHE283:
	movq	%rax, %rcx
	leaq	9776(%rbp), %rax
	movq	%rax, %rdx
	call	_ZN5ValueaSEOS_
	leaq	10048(%rbp), %rax
	movq	%rax, %rcx
	call	_ZNSt7__cxx1112basic_stringIcSt11char_traitsIcESaIcEED1Ev
	leaq	10095(%rbp), %rax
	movq	%rax, %rcx
	call	_ZNSt15__new_allocatorIcED2Ev
	nop
	leaq	10000(%rbp), %rax
	movq	%rax, %rcx
	call	_ZNSt7__cxx1112basic_stringIcSt11char_traitsIcESaIcEED1Ev
	leaq	10047(%rbp), %rax
	movq	%rax, %rcx
	call	_ZNSt15__new_allocatorIcED2Ev
	nop
	leaq	9776(%rbp), %rax
	movq	%rax, %rcx
	call	_ZN5ValueD1Ev
	leaq	9936(%rbp), %rax
	movq	%rax, %rcx
	call	_ZN5ValueD1Ev
	leaq	9888(%rbp), %rax
	movq	%rax, %rcx
	call	_ZNSt7__cxx1112basic_stringIcSt11char_traitsIcESaIcEED1Ev
	leaq	9935(%rbp), %rax
	movq	%rax, %rcx
	call	_ZNSt15__new_allocatorIcED2Ev
	nop
	leaq	9840(%rbp), %rax
	movq	%rax, %rcx
	call	_ZNSt7__cxx1112basic_stringIcSt11char_traitsIcESaIcEED1Ev
	leaq	9887(%rbp), %rax
	movq	%rax, %rcx
	call	_ZNSt15__new_allocatorIcED2Ev
	nop
	leaq	10207(%rbp), %rax
	movq	%rax, 11952(%rbp)
	nop
	nop
	leaq	10207(%rbp), %rcx
	leaq	.LC36(%rip), %rdx
	leaq	10160(%rbp), %rax
	movq	%rcx, %r8
	movq	%rax, %rcx
.LEHB284:
	call	_ZNSt7__cxx1112basic_stringIcSt11char_traitsIcESaIcEEC1IS3_EEPKcRKS3_
.LEHE284:
	leaq	10160(%rbp), %rdx
	leaq	10096(%rbp), %rax
	movq	%rax, %rcx
.LEHB285:
	call	_ZN5ValueC1ENSt7__cxx1112basic_stringIcSt11char_traitsIcESaIcEEE
.LEHE285:
	leaq	10096(%rbp), %rax
	movq	%rax, %rcx
.LEHB286:
	call	_ZN5Value5printEv
.LEHE286:
	leaq	10096(%rbp), %rax
	movq	%rax, %rcx
	call	_ZN5ValueD1Ev
	leaq	10160(%rbp), %rax
	movq	%rax, %rcx
	call	_ZNSt7__cxx1112basic_stringIcSt11char_traitsIcESaIcEED1Ev
	leaq	10207(%rbp), %rax
	movq	%rax, %rcx
	call	_ZNSt15__new_allocatorIcED2Ev
	nop
	movq	.refptr._ZSt4endlIcSt11char_traitsIcEERSt13basic_ostreamIT_T0_ES6_(%rip), %rdx
	movq	.refptr._ZSt4cout(%rip), %rax
	movq	%rax, %rcx
.LEHB287:
	call	_ZNSolsEPFRSoS_E
.LEHE287:
	leaq	10255(%rbp), %rax
	movq	%rax, 11944(%rbp)
	nop
	nop
	leaq	10255(%rbp), %rcx
	leaq	.LC26(%rip), %rdx
	leaq	10208(%rbp), %rax
	movq	%rcx, %r8
	movq	%rax, %rcx
.LEHB288:
	call	_ZNSt7__cxx1112basic_stringIcSt11char_traitsIcESaIcEEC1IS3_EEPKcRKS3_
.LEHE288:
	leaq	10208(%rbp), %rax
	movq	%rax, %rcx
.LEHB289:
	call	_Z6getVarNSt7__cxx1112basic_stringIcSt11char_traitsIcESaIcEEE
.LEHE289:
	movq	48(%rax), %rbx
	leaq	10303(%rbp), %rax
	movq	%rax, 11936(%rbp)
	nop
	nop
	leaq	10303(%rbp), %rcx
	leaq	.LC27(%rip), %rdx
	leaq	10256(%rbp), %rax
	movq	%rcx, %r8
	movq	%rax, %rcx
.LEHB290:
	call	_ZNSt7__cxx1112basic_stringIcSt11char_traitsIcESaIcEEC1IS3_EEPKcRKS3_
.LEHE290:
	leaq	10256(%rbp), %rax
	movq	%rax, %rdx
	movq	%rbx, %rcx
.LEHB291:
	call	_ZNSt3mapINSt7__cxx1112basic_stringIcSt11char_traitsIcESaIcEEE5ValueSt4lessIS5_ESaISt4pairIKS5_S6_EEEixEOS5_
	movq	%rax, %rcx
	call	_ZN5Value5printEv
.LEHE291:
	leaq	10256(%rbp), %rax
	movq	%rax, %rcx
	call	_ZNSt7__cxx1112basic_stringIcSt11char_traitsIcESaIcEED1Ev
	leaq	10303(%rbp), %rax
	movq	%rax, %rcx
	call	_ZNSt15__new_allocatorIcED2Ev
	nop
	leaq	10208(%rbp), %rax
	movq	%rax, %rcx
	call	_ZNSt7__cxx1112basic_stringIcSt11char_traitsIcESaIcEED1Ev
	leaq	10255(%rbp), %rax
	movq	%rax, %rcx
	call	_ZNSt15__new_allocatorIcED2Ev
	nop
	movq	.refptr._ZSt4endlIcSt11char_traitsIcEERSt13basic_ostreamIT_T0_ES6_(%rip), %rdx
	movq	.refptr._ZSt4cout(%rip), %rax
	movq	%rax, %rcx
.LEHB292:
	call	_ZNSolsEPFRSoS_E
.LEHE292:
.L104:
	leaq	10351(%rbp), %rax
	movq	%rax, 11928(%rbp)
	nop
	nop
	leaq	10351(%rbp), %rcx
	leaq	.LC26(%rip), %rdx
	leaq	10304(%rbp), %rax
	movq	%rcx, %r8
	movq	%rax, %rcx
.LEHB293:
	call	_ZNSt7__cxx1112basic_stringIcSt11char_traitsIcESaIcEEC1IS3_EEPKcRKS3_
.LEHE293:
	leaq	10304(%rbp), %rax
	movq	%rax, %rcx
.LEHB294:
	call	_Z6getVarNSt7__cxx1112basic_stringIcSt11char_traitsIcESaIcEEE
.LEHE294:
	movq	48(%rax), %rbx
	leaq	10399(%rbp), %rax
	movq	%rax, 11920(%rbp)
	nop
	nop
	leaq	10399(%rbp), %rcx
	leaq	.LC28(%rip), %rdx
	leaq	10352(%rbp), %rax
	movq	%rcx, %r8
	movq	%rax, %rcx
.LEHB295:
	call	_ZNSt7__cxx1112basic_stringIcSt11char_traitsIcESaIcEEC1IS3_EEPKcRKS3_
.LEHE295:
	leaq	10352(%rbp), %rax
	movq	%rax, %rdx
	movq	%rbx, %rcx
.LEHB296:
	call	_ZNSt3mapINSt7__cxx1112basic_stringIcSt11char_traitsIcESaIcEEE5ValueSt4lessIS5_ESaISt4pairIKS5_S6_EEEixEOS5_
.LEHE296:
	movq	%rax, %rcx
	call	_ZN5Value6getValEv
	movapd	%xmm0, %xmm6
	leaq	10447(%rbp), %rax
	movq	%rax, 11912(%rbp)
	nop
	nop
	leaq	10447(%rbp), %rcx
	leaq	.LC32(%rip), %rdx
	leaq	10400(%rbp), %rax
	movq	%rcx, %r8
	movq	%rax, %rcx
.LEHB297:
	call	_ZNSt7__cxx1112basic_stringIcSt11char_traitsIcESaIcEEC1IS3_EEPKcRKS3_
.LEHE297:
	leaq	10400(%rbp), %rax
	movq	%rax, %rcx
.LEHB298:
	call	_Z6getVarNSt7__cxx1112basic_stringIcSt11char_traitsIcESaIcEEE
.LEHE298:
	movq	%rax, %rcx
	call	_ZN5Value6getValEv
	movq	%xmm0, %rax
	movq	%rax, %xmm4
	comisd	%xmm6, %xmm4
	seta	%bl
	leaq	10400(%rbp), %rax
	movq	%rax, %rcx
	call	_ZNSt7__cxx1112basic_stringIcSt11char_traitsIcESaIcEED1Ev
	leaq	10447(%rbp), %rax
	movq	%rax, %rcx
	call	_ZNSt15__new_allocatorIcED2Ev
	nop
	leaq	10352(%rbp), %rax
	movq	%rax, %rcx
	call	_ZNSt7__cxx1112basic_stringIcSt11char_traitsIcESaIcEED1Ev
	leaq	10399(%rbp), %rax
	movq	%rax, %rcx
	call	_ZNSt15__new_allocatorIcED2Ev
	nop
	leaq	10304(%rbp), %rax
	movq	%rax, %rcx
	call	_ZNSt7__cxx1112basic_stringIcSt11char_traitsIcESaIcEED1Ev
	leaq	10351(%rbp), %rax
	movq	%rax, %rcx
	call	_ZNSt15__new_allocatorIcED2Ev
	nop
	testb	%bl, %bl
	je	.L100
	leaq	10559(%rbp), %rax
	movq	%rax, 11904(%rbp)
	nop
	nop
	leaq	10559(%rbp), %rcx
	leaq	.LC26(%rip), %rdx
	leaq	10512(%rbp), %rax
	movq	%rcx, %r8
	movq	%rax, %rcx
.LEHB299:
	call	_ZNSt7__cxx1112basic_stringIcSt11char_traitsIcESaIcEEC1IS3_EEPKcRKS3_
.LEHE299:
	leaq	10512(%rbp), %rax
	movq	%rax, %rcx
.LEHB300:
	call	_Z6getVarNSt7__cxx1112basic_stringIcSt11char_traitsIcESaIcEEE
.LEHE300:
	movq	48(%rax), %rbx
	leaq	10607(%rbp), %rax
	movq	%rax, 11896(%rbp)
	nop
	nop
	leaq	10607(%rbp), %rcx
	leaq	.LC28(%rip), %rdx
	leaq	10560(%rbp), %rax
	movq	%rcx, %r8
	movq	%rax, %rcx
.LEHB301:
	call	_ZNSt7__cxx1112basic_stringIcSt11char_traitsIcESaIcEEC1IS3_EEPKcRKS3_
.LEHE301:
	leaq	10560(%rbp), %rax
	movq	%rax, %rdx
	movq	%rbx, %rcx
.LEHB302:
	call	_ZNSt3mapINSt7__cxx1112basic_stringIcSt11char_traitsIcESaIcEEE5ValueSt4lessIS5_ESaISt4pairIKS5_S6_EEEixEOS5_
.LEHE302:
	movq	%rax, %rcx
	call	_ZN5Value6getValEv
	movapd	%xmm0, %xmm6
	leaq	10608(%rbp), %rax
	movl	$1, %edx
	movq	%rax, %rcx
	call	_ZN5ValueC1Ei
	leaq	10608(%rbp), %rax
	movq	%rax, %rcx
	call	_ZN5Value6getValEv
	addsd	%xmm6, %xmm0
	leaq	10448(%rbp), %rax
	movapd	%xmm0, %xmm1
	movq	%rax, %rcx
	call	_ZN5ValueC1Ed
	leaq	10719(%rbp), %rax
	movq	%rax, 11888(%rbp)
	nop
	nop
	leaq	10719(%rbp), %rcx
	leaq	.LC26(%rip), %rdx
	leaq	10672(%rbp), %rax
	movq	%rcx, %r8
	movq	%rax, %rcx
.LEHB303:
	call	_ZNSt7__cxx1112basic_stringIcSt11char_traitsIcESaIcEEC1IS3_EEPKcRKS3_
.LEHE303:
	leaq	10672(%rbp), %rax
	movq	%rax, %rcx
.LEHB304:
	call	_Z6getVarNSt7__cxx1112basic_stringIcSt11char_traitsIcESaIcEEE
.LEHE304:
	movq	48(%rax), %rbx
	leaq	10767(%rbp), %rax
	movq	%rax, 11880(%rbp)
	nop
	nop
	leaq	10767(%rbp), %rcx
	leaq	.LC28(%rip), %rdx
	leaq	10720(%rbp), %rax
	movq	%rcx, %r8
	movq	%rax, %rcx
.LEHB305:
	call	_ZNSt7__cxx1112basic_stringIcSt11char_traitsIcESaIcEEC1IS3_EEPKcRKS3_
.LEHE305:
	leaq	10720(%rbp), %rax
	movq	%rax, %rdx
	movq	%rbx, %rcx
.LEHB306:
	call	_ZNSt3mapINSt7__cxx1112basic_stringIcSt11char_traitsIcESaIcEEE5ValueSt4lessIS5_ESaISt4pairIKS5_S6_EEEixEOS5_
.LEHE306:
	movq	%rax, %rcx
	leaq	10448(%rbp), %rax
	movq	%rax, %rdx
	call	_ZN5ValueaSEOS_
	leaq	10720(%rbp), %rax
	movq	%rax, %rcx
	call	_ZNSt7__cxx1112basic_stringIcSt11char_traitsIcESaIcEED1Ev
	leaq	10767(%rbp), %rax
	movq	%rax, %rcx
	call	_ZNSt15__new_allocatorIcED2Ev
	nop
	leaq	10672(%rbp), %rax
	movq	%rax, %rcx
	call	_ZNSt7__cxx1112basic_stringIcSt11char_traitsIcESaIcEED1Ev
	leaq	10719(%rbp), %rax
	movq	%rax, %rcx
	call	_ZNSt15__new_allocatorIcED2Ev
	nop
	leaq	10448(%rbp), %rax
	movq	%rax, %rcx
	call	_ZN5ValueD1Ev
	leaq	10608(%rbp), %rax
	movq	%rax, %rcx
	call	_ZN5ValueD1Ev
	leaq	10560(%rbp), %rax
	movq	%rax, %rcx
	call	_ZNSt7__cxx1112basic_stringIcSt11char_traitsIcESaIcEED1Ev
	leaq	10607(%rbp), %rax
	movq	%rax, %rcx
	call	_ZNSt15__new_allocatorIcED2Ev
	nop
	leaq	10512(%rbp), %rax
	movq	%rax, %rcx
	call	_ZNSt7__cxx1112basic_stringIcSt11char_traitsIcESaIcEED1Ev
	leaq	10559(%rbp), %rax
	movq	%rax, %rcx
	call	_ZNSt15__new_allocatorIcED2Ev
	nop
	leaq	10879(%rbp), %rax
	movq	%rax, 11872(%rbp)
	nop
	nop
	leaq	10879(%rbp), %rcx
	leaq	.LC26(%rip), %rdx
	leaq	10832(%rbp), %rax
	movq	%rcx, %r8
	movq	%rax, %rcx
.LEHB307:
	call	_ZNSt7__cxx1112basic_stringIcSt11char_traitsIcESaIcEEC1IS3_EEPKcRKS3_
.LEHE307:
	leaq	10832(%rbp), %rax
	movq	%rax, %rcx
.LEHB308:
	call	_Z6getVarNSt7__cxx1112basic_stringIcSt11char_traitsIcESaIcEEE
.LEHE308:
	movq	48(%rax), %rbx
	leaq	10927(%rbp), %rax
	movq	%rax, 11864(%rbp)
	nop
	nop
	leaq	10927(%rbp), %rcx
	leaq	.LC29(%rip), %rdx
	leaq	10880(%rbp), %rax
	movq	%rcx, %r8
	movq	%rax, %rcx
.LEHB309:
	call	_ZNSt7__cxx1112basic_stringIcSt11char_traitsIcESaIcEEC1IS3_EEPKcRKS3_
.LEHE309:
	leaq	10880(%rbp), %rax
	movq	%rax, %rdx
	movq	%rbx, %rcx
.LEHB310:
	call	_ZNSt3mapINSt7__cxx1112basic_stringIcSt11char_traitsIcESaIcEEE5ValueSt4lessIS5_ESaISt4pairIKS5_S6_EEEixEOS5_
.LEHE310:
	movq	%rax, %rcx
	call	_ZN5Value6getValEv
	movq	%xmm0, %rbx
	leaq	10928(%rbp), %rax
	movl	$8, %edx
	movq	%rax, %rcx
	call	_ZN5ValueC1Ei
	leaq	10928(%rbp), %rax
	movq	%rax, %rcx
	call	_ZN5Value6getValEv
	movq	%rbx, %xmm1
	subsd	%xmm0, %xmm1
	leaq	10768(%rbp), %rax
	movq	%rax, %rcx
	call	_ZN5ValueC1Ed
	leaq	11039(%rbp), %rax
	movq	%rax, 11856(%rbp)
	nop
	nop
	leaq	11039(%rbp), %rcx
	leaq	.LC26(%rip), %rdx
	leaq	10992(%rbp), %rax
	movq	%rcx, %r8
	movq	%rax, %rcx
.LEHB311:
	call	_ZNSt7__cxx1112basic_stringIcSt11char_traitsIcESaIcEEC1IS3_EEPKcRKS3_
.LEHE311:
	leaq	10992(%rbp), %rax
	movq	%rax, %rcx
.LEHB312:
	call	_Z6getVarNSt7__cxx1112basic_stringIcSt11char_traitsIcESaIcEEE
.LEHE312:
	movq	48(%rax), %rbx
	leaq	11087(%rbp), %rax
	movq	%rax, 11848(%rbp)
	nop
	nop
	leaq	11087(%rbp), %rcx
	leaq	.LC29(%rip), %rdx
	leaq	11040(%rbp), %rax
	movq	%rcx, %r8
	movq	%rax, %rcx
.LEHB313:
	call	_ZNSt7__cxx1112basic_stringIcSt11char_traitsIcESaIcEEC1IS3_EEPKcRKS3_
.LEHE313:
	leaq	11040(%rbp), %rax
	movq	%rax, %rdx
	movq	%rbx, %rcx
.LEHB314:
	call	_ZNSt3mapINSt7__cxx1112basic_stringIcSt11char_traitsIcESaIcEEE5ValueSt4lessIS5_ESaISt4pairIKS5_S6_EEEixEOS5_
.LEHE314:
	movq	%rax, %rcx
	leaq	10768(%rbp), %rax
	movq	%rax, %rdx
	call	_ZN5ValueaSEOS_
	leaq	11040(%rbp), %rax
	movq	%rax, %rcx
	call	_ZNSt7__cxx1112basic_stringIcSt11char_traitsIcESaIcEED1Ev
	leaq	11087(%rbp), %rax
	movq	%rax, %rcx
	call	_ZNSt15__new_allocatorIcED2Ev
	nop
	leaq	10992(%rbp), %rax
	movq	%rax, %rcx
	call	_ZNSt7__cxx1112basic_stringIcSt11char_traitsIcESaIcEED1Ev
	leaq	11039(%rbp), %rax
	movq	%rax, %rcx
	call	_ZNSt15__new_allocatorIcED2Ev
	nop
	leaq	10768(%rbp), %rax
	movq	%rax, %rcx
	call	_ZN5ValueD1Ev
	leaq	10928(%rbp), %rax
	movq	%rax, %rcx
	call	_ZN5ValueD1Ev
	leaq	10880(%rbp), %rax
	movq	%rax, %rcx
	call	_ZNSt7__cxx1112basic_stringIcSt11char_traitsIcESaIcEED1Ev
	leaq	10927(%rbp), %rax
	movq	%rax, %rcx
	call	_ZNSt15__new_allocatorIcED2Ev
	nop
	leaq	10832(%rbp), %rax
	movq	%rax, %rcx
	call	_ZNSt7__cxx1112basic_stringIcSt11char_traitsIcESaIcEED1Ev
	leaq	10879(%rbp), %rax
	movq	%rax, %rcx
	call	_ZNSt15__new_allocatorIcED2Ev
	nop
	leaq	11199(%rbp), %rax
	movq	%rax, 11840(%rbp)
	nop
	nop
	leaq	11199(%rbp), %rcx
	leaq	.LC37(%rip), %rdx
	leaq	11152(%rbp), %rax
	movq	%rcx, %r8
	movq	%rax, %rcx
.LEHB315:
	call	_ZNSt7__cxx1112basic_stringIcSt11char_traitsIcESaIcEEC1IS3_EEPKcRKS3_
.LEHE315:
	leaq	11152(%rbp), %rdx
	leaq	11088(%rbp), %rax
	movq	%rax, %rcx
.LEHB316:
	call	_ZN5ValueC1ENSt7__cxx1112basic_stringIcSt11char_traitsIcESaIcEEE
.LEHE316:
	leaq	11088(%rbp), %rax
	movq	%rax, %rcx
.LEHB317:
	call	_ZN5Value5printEv
.LEHE317:
	leaq	11088(%rbp), %rax
	movq	%rax, %rcx
	call	_ZN5ValueD1Ev
	leaq	11152(%rbp), %rax
	movq	%rax, %rcx
	call	_ZNSt7__cxx1112basic_stringIcSt11char_traitsIcESaIcEED1Ev
	leaq	11199(%rbp), %rax
	movq	%rax, %rcx
	call	_ZNSt15__new_allocatorIcED2Ev
	nop
	movq	.refptr._ZSt4endlIcSt11char_traitsIcEERSt13basic_ostreamIT_T0_ES6_(%rip), %rdx
	movq	.refptr._ZSt4cout(%rip), %rax
	movq	%rax, %rcx
.LEHB318:
	call	_ZNSolsEPFRSoS_E
.LEHE318:
	leaq	11247(%rbp), %rax
	movq	%rax, 11832(%rbp)
	nop
	nop
	leaq	11247(%rbp), %rcx
	leaq	.LC26(%rip), %rdx
	leaq	11200(%rbp), %rax
	movq	%rcx, %r8
	movq	%rax, %rcx
.LEHB319:
	call	_ZNSt7__cxx1112basic_stringIcSt11char_traitsIcESaIcEEC1IS3_EEPKcRKS3_
.LEHE319:
	leaq	11200(%rbp), %rax
	movq	%rax, %rcx
.LEHB320:
	call	_Z6getVarNSt7__cxx1112basic_stringIcSt11char_traitsIcESaIcEEE
.LEHE320:
	movq	48(%rax), %rbx
	leaq	11295(%rbp), %rax
	movq	%rax, 11824(%rbp)
	nop
	nop
	leaq	11295(%rbp), %rcx
	leaq	.LC28(%rip), %rdx
	leaq	11248(%rbp), %rax
	movq	%rcx, %r8
	movq	%rax, %rcx
.LEHB321:
	call	_ZNSt7__cxx1112basic_stringIcSt11char_traitsIcESaIcEEC1IS3_EEPKcRKS3_
.LEHE321:
	leaq	11248(%rbp), %rax
	movq	%rax, %rdx
	movq	%rbx, %rcx
.LEHB322:
	call	_ZNSt3mapINSt7__cxx1112basic_stringIcSt11char_traitsIcESaIcEEE5ValueSt4lessIS5_ESaISt4pairIKS5_S6_EEEixEOS5_
	movq	%rax, %rcx
	call	_ZN5Value5printEv
.LEHE322:
	leaq	11248(%rbp), %rax
	movq	%rax, %rcx
	call	_ZNSt7__cxx1112basic_stringIcSt11char_traitsIcESaIcEED1Ev
	leaq	11295(%rbp), %rax
	movq	%rax, %rcx
	call	_ZNSt15__new_allocatorIcED2Ev
	nop
	leaq	11200(%rbp), %rax
	movq	%rax, %rcx
	call	_ZNSt7__cxx1112basic_stringIcSt11char_traitsIcESaIcEED1Ev
	leaq	11247(%rbp), %rax
	movq	%rax, %rcx
	call	_ZNSt15__new_allocatorIcED2Ev
	nop
	movq	.refptr._ZSt4endlIcSt11char_traitsIcEERSt13basic_ostreamIT_T0_ES6_(%rip), %rdx
	movq	.refptr._ZSt4cout(%rip), %rax
	movq	%rax, %rcx
.LEHB323:
	call	_ZNSolsEPFRSoS_E
.LEHE323:
.L100:
	leaq	11343(%rbp), %rax
	movq	%rax, 11816(%rbp)
	nop
	nop
	leaq	11343(%rbp), %rcx
	leaq	.LC26(%rip), %rdx
	leaq	11296(%rbp), %rax
	movq	%rcx, %r8
	movq	%rax, %rcx
.LEHB324:
	call	_ZNSt7__cxx1112basic_stringIcSt11char_traitsIcESaIcEEC1IS3_EEPKcRKS3_
.LEHE324:
	leaq	11296(%rbp), %rax
	movq	%rax, %rcx
.LEHB325:
	call	_Z6getVarNSt7__cxx1112basic_stringIcSt11char_traitsIcESaIcEEE
.LEHE325:
	movq	48(%rax), %rbx
	leaq	11391(%rbp), %rax
	movq	%rax, 11808(%rbp)
	nop
	nop
	leaq	11391(%rbp), %rcx
	leaq	.LC30(%rip), %rdx
	leaq	11344(%rbp), %rax
	movq	%rcx, %r8
	movq	%rax, %rcx
.LEHB326:
	call	_ZNSt7__cxx1112basic_stringIcSt11char_traitsIcESaIcEEC1IS3_EEPKcRKS3_
.LEHE326:
	leaq	11344(%rbp), %rax
	movq	%rax, %rdx
	movq	%rbx, %rcx
.LEHB327:
	call	_ZNSt3mapINSt7__cxx1112basic_stringIcSt11char_traitsIcESaIcEEE5ValueSt4lessIS5_ESaISt4pairIKS5_S6_EEEixEOS5_
.LEHE327:
	movq	%rax, %rcx
	call	_ZN5Value6getValEv
	movq	%xmm0, %rbx
	leaq	11392(%rbp), %rax
	movl	$1, %edx
	movq	%rax, %rcx
	call	_ZN5ValueC1Ei
	leaq	11392(%rbp), %rax
	movq	%rax, %rcx
	call	_ZN5Value6getValEv
	movq	%rbx, %xmm5
	ucomisd	%xmm0, %xmm5
	setnp	%al
	movl	$0, %edx
	movq	%rbx, %xmm2
	ucomisd	%xmm0, %xmm2
	cmove	%eax, %edx
	movl	%edx, %ebx
	leaq	11392(%rbp), %rax
	movq	%rax, %rcx
	call	_ZN5ValueD1Ev
	leaq	11344(%rbp), %rax
	movq	%rax, %rcx
	call	_ZNSt7__cxx1112basic_stringIcSt11char_traitsIcESaIcEED1Ev
	leaq	11391(%rbp), %rax
	movq	%rax, %rcx
	call	_ZNSt15__new_allocatorIcED2Ev
	nop
	leaq	11296(%rbp), %rax
	movq	%rax, %rcx
	call	_ZNSt7__cxx1112basic_stringIcSt11char_traitsIcESaIcEED1Ev
	leaq	11343(%rbp), %rax
	movq	%rax, %rcx
	call	_ZNSt15__new_allocatorIcED2Ev
	nop
	testb	%bl, %bl
	jne	.L105
.L102:
	leaq	11567(%rbp), %rax
	movq	%rax, 11800(%rbp)
	nop
	nop
	leaq	11567(%rbp), %rcx
	leaq	.LC38(%rip), %rdx
	leaq	11520(%rbp), %rax
	movq	%rcx, %r8
	movq	%rax, %rcx
.LEHB328:
	call	_ZNSt7__cxx1112basic_stringIcSt11char_traitsIcESaIcEEC1IS3_EEPKcRKS3_
.LEHE328:
	leaq	11520(%rbp), %rdx
	leaq	11456(%rbp), %rax
	movq	%rax, %rcx
.LEHB329:
	call	_ZN5ValueC1ENSt7__cxx1112basic_stringIcSt11char_traitsIcESaIcEEE
.LEHE329:
	leaq	11456(%rbp), %rax
	movq	%rax, %rcx
.LEHB330:
	call	_ZN5Value5printEv
.LEHE330:
	leaq	11456(%rbp), %rax
	movq	%rax, %rcx
	call	_ZN5ValueD1Ev
	leaq	11520(%rbp), %rax
	movq	%rax, %rcx
	call	_ZNSt7__cxx1112basic_stringIcSt11char_traitsIcESaIcEED1Ev
	leaq	11567(%rbp), %rax
	movq	%rax, %rcx
	call	_ZNSt15__new_allocatorIcED2Ev
	nop
	movq	.refptr._ZSt4endlIcSt11char_traitsIcEERSt13basic_ostreamIT_T0_ES6_(%rip), %rdx
	movq	.refptr._ZSt4cout(%rip), %rax
	movq	%rax, %rcx
.LEHB331:
	call	_ZNSolsEPFRSoS_E
.LEHE331:
	leaq	11615(%rbp), %rax
	movq	%rax, 11792(%rbp)
	nop
	nop
	leaq	11615(%rbp), %rcx
	leaq	.LC26(%rip), %rdx
	leaq	11568(%rbp), %rax
	movq	%rcx, %r8
	movq	%rax, %rcx
.LEHB332:
	call	_ZNSt7__cxx1112basic_stringIcSt11char_traitsIcESaIcEEC1IS3_EEPKcRKS3_
.LEHE332:
	leaq	11568(%rbp), %rax
	movq	%rax, %rcx
.LEHB333:
	call	_Z6getVarNSt7__cxx1112basic_stringIcSt11char_traitsIcESaIcEEE
.LEHE333:
	movq	48(%rax), %rbx
	leaq	11663(%rbp), %rax
	movq	%rax, 11784(%rbp)
	nop
	nop
	leaq	11663(%rbp), %rcx
	leaq	.LC29(%rip), %rdx
	leaq	11616(%rbp), %rax
	movq	%rcx, %r8
	movq	%rax, %rcx
.LEHB334:
	call	_ZNSt7__cxx1112basic_stringIcSt11char_traitsIcESaIcEEC1IS3_EEPKcRKS3_
.LEHE334:
	leaq	11616(%rbp), %rax
	movq	%rax, %rdx
	movq	%rbx, %rcx
.LEHB335:
	call	_ZNSt3mapINSt7__cxx1112basic_stringIcSt11char_traitsIcESaIcEEE5ValueSt4lessIS5_ESaISt4pairIKS5_S6_EEEixEOS5_
	movq	%rax, %rcx
	call	_ZN5Value5printEv
.LEHE335:
	leaq	11616(%rbp), %rax
	movq	%rax, %rcx
	call	_ZNSt7__cxx1112basic_stringIcSt11char_traitsIcESaIcEED1Ev
	leaq	11663(%rbp), %rax
	movq	%rax, %rcx
	call	_ZNSt15__new_allocatorIcED2Ev
	nop
	leaq	11568(%rbp), %rax
	movq	%rax, %rcx
	call	_ZNSt7__cxx1112basic_stringIcSt11char_traitsIcESaIcEED1Ev
	leaq	11615(%rbp), %rax
	movq	%rax, %rcx
	call	_ZNSt15__new_allocatorIcED2Ev
	nop
	movq	.refptr._ZSt4endlIcSt11char_traitsIcEERSt13basic_ostreamIT_T0_ES6_(%rip), %rdx
	movq	.refptr._ZSt4cout(%rip), %rax
	movq	%rax, %rcx
.LEHB336:
	call	_ZNSolsEPFRSoS_E
.LEHE336:
	leaq	11775(%rbp), %rax
	movq	%rax, 11776(%rbp)
	nop
	nop
	leaq	11775(%rbp), %rcx
	leaq	.LC39(%rip), %rdx
	leaq	11728(%rbp), %rax
	movq	%rcx, %r8
	movq	%rax, %rcx
.LEHB337:
	call	_ZNSt7__cxx1112basic_stringIcSt11char_traitsIcESaIcEEC1IS3_EEPKcRKS3_
.LEHE337:
	leaq	11728(%rbp), %rdx
	leaq	11664(%rbp), %rax
	movq	%rax, %rcx
.LEHB338:
	call	_ZN5ValueC1ENSt7__cxx1112basic_stringIcSt11char_traitsIcESaIcEEE
.LEHE338:
	leaq	11664(%rbp), %rax
	movq	%rax, %rcx
.LEHB339:
	call	_ZN5Value5printEv
.LEHE339:
	leaq	11664(%rbp), %rax
	movq	%rax, %rcx
	call	_ZN5ValueD1Ev
	leaq	11728(%rbp), %rax
	movq	%rax, %rcx
	call	_ZNSt7__cxx1112basic_stringIcSt11char_traitsIcESaIcEED1Ev
	leaq	11775(%rbp), %rax
	movq	%rax, %rcx
	call	_ZNSt15__new_allocatorIcED2Ev
	nop
	movq	.refptr._ZSt4endlIcSt11char_traitsIcEERSt13basic_ostreamIT_T0_ES6_(%rip), %rdx
	movq	.refptr._ZSt4cout(%rip), %rax
	movq	%rax, %rcx
.LEHB340:
	call	_ZNSolsEPFRSoS_E
	movl	$0, %eax
	jmp	.L742
.L427:
	movq	%rax, %rbx
	leaq	-96(%rbp), %rax
	movq	%rax, %rcx
	call	_ZN5ValueD1Ev
	jmp	.L108
.L426:
	movq	%rax, %rbx
.L108:
	leaq	-32(%rbp), %rax
	movq	%rax, %rcx
	call	_ZNSt7__cxx1112basic_stringIcSt11char_traitsIcESaIcEED1Ev
	jmp	.L109
.L425:
	movq	%rax, %rbx
.L109:
	leaq	15(%rbp), %rax
	movq	%rax, %rcx
	call	_ZNSt15__new_allocatorIcED2Ev
	nop
	movq	%rbx, %rax
	movq	%rax, %rcx
	call	_Unwind_Resume
.L430:
	movq	%rax, %rbx
	leaq	16(%rbp), %rax
	movq	%rax, %rcx
	call	_ZN5ValueD1Ev
	jmp	.L111
.L429:
	movq	%rax, %rbx
.L111:
	leaq	80(%rbp), %rax
	movq	%rax, %rcx
	call	_ZNSt7__cxx1112basic_stringIcSt11char_traitsIcESaIcEED1Ev
	jmp	.L112
.L428:
	movq	%rax, %rbx
.L112:
	leaq	127(%rbp), %rax
	movq	%rax, %rcx
	call	_ZNSt15__new_allocatorIcED2Ev
	nop
	movq	%rbx, %rax
	movq	%rax, %rcx
	call	_Unwind_Resume
.L433:
	movq	%rax, %rbx
	leaq	128(%rbp), %rax
	movq	%rax, %rcx
	call	_ZN5ValueD1Ev
	jmp	.L114
.L432:
	movq	%rax, %rbx
.L114:
	leaq	192(%rbp), %rax
	movq	%rax, %rcx
	call	_ZNSt7__cxx1112basic_stringIcSt11char_traitsIcESaIcEED1Ev
	jmp	.L115
.L431:
	movq	%rax, %rbx
.L115:
	leaq	239(%rbp), %rax
	movq	%rax, %rcx
	call	_ZNSt15__new_allocatorIcED2Ev
	nop
	movq	%rbx, %rax
	movq	%rax, %rcx
	call	_Unwind_Resume
.L436:
	movq	%rax, %rbx
	leaq	352(%rbp), %rax
	movq	%rax, %rcx
	call	_ZN5ValueD1Ev
	jmp	.L117
.L435:
	movq	%rax, %rbx
.L117:
	leaq	304(%rbp), %rax
	movq	%rax, %rcx
	call	_ZNSt7__cxx1112basic_stringIcSt11char_traitsIcESaIcEED1Ev
	jmp	.L118
.L434:
	movq	%rax, %rbx
.L118:
	leaq	351(%rbp), %rax
	movq	%rax, %rcx
	call	_ZNSt15__new_allocatorIcED2Ev
	nop
	leaq	240(%rbp), %rax
	movq	%rax, %rcx
	call	_ZN5ValueD1Ev
	movq	%rbx, %rax
	movq	%rax, %rcx
	call	_Unwind_Resume
.L439:
	movq	%rax, %rbx
	leaq	528(%rbp), %rax
	movq	%rax, %rcx
	call	_ZN5ValueD1Ev
	jmp	.L120
.L438:
	movq	%rax, %rbx
.L120:
	leaq	480(%rbp), %rax
	movq	%rax, %rcx
	call	_ZNSt7__cxx1112basic_stringIcSt11char_traitsIcESaIcEED1Ev
	jmp	.L121
.L437:
	movq	%rax, %rbx
.L121:
	leaq	527(%rbp), %rax
	movq	%rax, %rcx
	call	_ZNSt15__new_allocatorIcED2Ev
	nop
	leaq	416(%rbp), %rax
	movq	%rax, %rcx
	call	_ZN5ValueD1Ev
	movq	%rbx, %rax
	movq	%rax, %rcx
	call	_Unwind_Resume
.L442:
	movq	%rax, %rbx
	leaq	704(%rbp), %rax
	movq	%rax, %rcx
	call	_ZN5ValueD1Ev
	jmp	.L123
.L441:
	movq	%rax, %rbx
.L123:
	leaq	656(%rbp), %rax
	movq	%rax, %rcx
	call	_ZNSt7__cxx1112basic_stringIcSt11char_traitsIcESaIcEED1Ev
	jmp	.L124
.L440:
	movq	%rax, %rbx
.L124:
	leaq	703(%rbp), %rax
	movq	%rax, %rcx
	call	_ZNSt15__new_allocatorIcED2Ev
	nop
	leaq	592(%rbp), %rax
	movq	%rax, %rcx
	call	_ZN5ValueD1Ev
	movq	%rbx, %rax
	movq	%rax, %rcx
	call	_Unwind_Resume
.L445:
	movq	%rax, %rbx
	leaq	880(%rbp), %rax
	movq	%rax, %rcx
	call	_ZN5ValueD1Ev
	jmp	.L126
.L444:
	movq	%rax, %rbx
.L126:
	leaq	832(%rbp), %rax
	movq	%rax, %rcx
	call	_ZNSt7__cxx1112basic_stringIcSt11char_traitsIcESaIcEED1Ev
	jmp	.L127
.L443:
	movq	%rax, %rbx
.L127:
	leaq	879(%rbp), %rax
	movq	%rax, %rcx
	call	_ZNSt15__new_allocatorIcED2Ev
	nop
	leaq	768(%rbp), %rax
	movq	%rax, %rcx
	call	_ZN5ValueD1Ev
	movq	%rbx, %rax
	movq	%rax, %rcx
	call	_Unwind_Resume
.L448:
	movq	%rax, %rbx
	leaq	1056(%rbp), %rax
	movq	%rax, %rcx
	call	_ZN5ValueD1Ev
	jmp	.L129
.L447:
	movq	%rax, %rbx
.L129:
	leaq	1008(%rbp), %rax
	movq	%rax, %rcx
	call	_ZNSt7__cxx1112basic_stringIcSt11char_traitsIcESaIcEED1Ev
	jmp	.L130
.L446:
	movq	%rax, %rbx
.L130:
	leaq	1055(%rbp), %rax
	movq	%rax, %rcx
	call	_ZNSt15__new_allocatorIcED2Ev
	nop
	leaq	944(%rbp), %rax
	movq	%rax, %rcx
	call	_ZN5ValueD1Ev
	movq	%rbx, %rax
	movq	%rax, %rcx
	call	_Unwind_Resume
.L451:
	movq	%rax, %rbx
	leaq	1120(%rbp), %rax
	movq	%rax, %rcx
	call	_ZN5ValueD1Ev
	jmp	.L132
.L450:
	movq	%rax, %rbx
.L132:
	leaq	1184(%rbp), %rax
	movq	%rax, %rcx
	call	_ZNSt7__cxx1112basic_stringIcSt11char_traitsIcESaIcEED1Ev
	jmp	.L133
.L449:
	movq	%rax, %rbx
.L133:
	leaq	1231(%rbp), %rax
	movq	%rax, %rcx
	call	_ZNSt15__new_allocatorIcED2Ev
	nop
	movq	%rbx, %rax
	movq	%rax, %rcx
	call	_Unwind_Resume
.L453:
	movq	%rax, %rbx
	leaq	1296(%rbp), %rax
	movq	%rax, %rcx
	call	_ZNSt7__cxx1112basic_stringIcSt11char_traitsIcESaIcEED1Ev
	jmp	.L135
.L452:
	movq	%rax, %rbx
.L135:
	leaq	1343(%rbp), %rax
	movq	%rax, %rcx
	call	_ZNSt15__new_allocatorIcED2Ev
	nop
	leaq	1232(%rbp), %rax
	movq	%rax, %rcx
	call	_ZN5ValueD1Ev
	movq	%rbx, %rax
	movq	%rax, %rcx
	call	_Unwind_Resume
.L455:
	movq	%rax, %rbx
	leaq	1408(%rbp), %rax
	movq	%rax, %rcx
	call	_ZNSt7__cxx1112basic_stringIcSt11char_traitsIcESaIcEED1Ev
	jmp	.L137
.L454:
	movq	%rax, %rbx
.L137:
	leaq	1455(%rbp), %rax
	movq	%rax, %rcx
	call	_ZNSt15__new_allocatorIcED2Ev
	nop
	leaq	1344(%rbp), %rax
	movq	%rax, %rcx
	call	_ZN5ValueD1Ev
	movq	%rbx, %rax
	movq	%rax, %rcx
	call	_Unwind_Resume
.L463:
	movq	%rax, %rbx
	leaq	1600(%rbp), %rax
	movq	%rax, %rcx
	call	_ZNSt7__cxx1112basic_stringIcSt11char_traitsIcESaIcEED1Ev
	jmp	.L139
.L462:
	movq	%rax, %rbx
.L139:
	leaq	1647(%rbp), %rax
	movq	%rax, %rcx
	call	_ZNSt15__new_allocatorIcED2Ev
	nop
	jmp	.L140
.L461:
	movq	%rax, %rbx
.L140:
	leaq	1552(%rbp), %rax
	movq	%rax, %rcx
	call	_ZNSt7__cxx1112basic_stringIcSt11char_traitsIcESaIcEED1Ev
	jmp	.L141
.L460:
	movq	%rax, %rbx
.L141:
	leaq	1599(%rbp), %rax
	movq	%rax, %rcx
	call	_ZNSt15__new_allocatorIcED2Ev
	nop
	jmp	.L142
.L459:
	movq	%rax, %rbx
.L142:
	leaq	1504(%rbp), %rax
	movq	%rax, %rcx
	call	_ZNSt7__cxx1112basic_stringIcSt11char_traitsIcESaIcEED1Ev
	jmp	.L143
.L458:
	movq	%rax, %rbx
.L143:
	leaq	1551(%rbp), %rax
	movq	%rax, %rcx
	call	_ZNSt15__new_allocatorIcED2Ev
	nop
	jmp	.L144
.L457:
	movq	%rax, %rbx
.L144:
	leaq	1456(%rbp), %rax
	movq	%rax, %rcx
	call	_ZNSt7__cxx1112basic_stringIcSt11char_traitsIcESaIcEED1Ev
	jmp	.L145
.L456:
	movq	%rax, %rbx
.L145:
	leaq	1503(%rbp), %rax
	movq	%rax, %rcx
	call	_ZNSt15__new_allocatorIcED2Ev
	nop
	movq	%rbx, %rax
	movq	%rax, %rcx
	call	_Unwind_Resume
.L469:
	movq	%rax, %rbx
	leaq	1808(%rbp), %rax
	movq	%rax, %rcx
	call	_ZNSt7__cxx1112basic_stringIcSt11char_traitsIcESaIcEED1Ev
	jmp	.L147
.L468:
	movq	%rax, %rbx
.L147:
	leaq	1855(%rbp), %rax
	movq	%rax, %rcx
	call	_ZNSt15__new_allocatorIcED2Ev
	nop
	leaq	1648(%rbp), %rax
	movq	%rax, %rcx
	call	_ZN5ValueD1Ev
	jmp	.L148
.L467:
	movq	%rax, %rbx
.L148:
	leaq	1760(%rbp), %rax
	movq	%rax, %rcx
	call	_ZNSt7__cxx1112basic_stringIcSt11char_traitsIcESaIcEED1Ev
	jmp	.L149
.L466:
	movq	%rax, %rbx
.L149:
	leaq	1807(%rbp), %rax
	movq	%rax, %rcx
	call	_ZNSt15__new_allocatorIcED2Ev
	nop
	jmp	.L150
.L465:
	movq	%rax, %rbx
.L150:
	leaq	1712(%rbp), %rax
	movq	%rax, %rcx
	call	_ZNSt7__cxx1112basic_stringIcSt11char_traitsIcESaIcEED1Ev
	jmp	.L151
.L464:
	movq	%rax, %rbx
.L151:
	leaq	1759(%rbp), %rax
	movq	%rax, %rcx
	call	_ZNSt15__new_allocatorIcED2Ev
	nop
	movq	%rbx, %rax
	movq	%rax, %rcx
	call	_Unwind_Resume
.L477:
	movq	%rax, %rbx
	leaq	2000(%rbp), %rax
	movq	%rax, %rcx
	call	_ZNSt7__cxx1112basic_stringIcSt11char_traitsIcESaIcEED1Ev
	jmp	.L153
.L476:
	movq	%rax, %rbx
.L153:
	leaq	2047(%rbp), %rax
	movq	%rax, %rcx
	call	_ZNSt15__new_allocatorIcED2Ev
	nop
	jmp	.L154
.L475:
	movq	%rax, %rbx
.L154:
	leaq	1952(%rbp), %rax
	movq	%rax, %rcx
	call	_ZNSt7__cxx1112basic_stringIcSt11char_traitsIcESaIcEED1Ev
	jmp	.L155
.L474:
	movq	%rax, %rbx
.L155:
	leaq	1999(%rbp), %rax
	movq	%rax, %rcx
	call	_ZNSt15__new_allocatorIcED2Ev
	nop
	jmp	.L156
.L473:
	movq	%rax, %rbx
.L156:
	leaq	1904(%rbp), %rax
	movq	%rax, %rcx
	call	_ZNSt7__cxx1112basic_stringIcSt11char_traitsIcESaIcEED1Ev
	jmp	.L157
.L472:
	movq	%rax, %rbx
.L157:
	leaq	1951(%rbp), %rax
	movq	%rax, %rcx
	call	_ZNSt15__new_allocatorIcED2Ev
	nop
	jmp	.L158
.L471:
	movq	%rax, %rbx
.L158:
	leaq	1856(%rbp), %rax
	movq	%rax, %rcx
	call	_ZNSt7__cxx1112basic_stringIcSt11char_traitsIcESaIcEED1Ev
	jmp	.L159
.L470:
	movq	%rax, %rbx
.L159:
	leaq	1903(%rbp), %rax
	movq	%rax, %rcx
	call	_ZNSt15__new_allocatorIcED2Ev
	nop
	movq	%rbx, %rax
	movq	%rax, %rcx
	call	_Unwind_Resume
.L483:
	movq	%rax, %rbx
	leaq	2144(%rbp), %rax
	movq	%rax, %rcx
	call	_ZNSt7__cxx1112basic_stringIcSt11char_traitsIcESaIcEED1Ev
	jmp	.L161
.L482:
	movq	%rax, %rbx
.L161:
	leaq	2191(%rbp), %rax
	movq	%rax, %rcx
	call	_ZNSt15__new_allocatorIcED2Ev
	nop
	jmp	.L162
.L481:
	movq	%rax, %rbx
.L162:
	leaq	2096(%rbp), %rax
	movq	%rax, %rcx
	call	_ZNSt7__cxx1112basic_stringIcSt11char_traitsIcESaIcEED1Ev
	jmp	.L163
.L480:
	movq	%rax, %rbx
.L163:
	leaq	2143(%rbp), %rax
	movq	%rax, %rcx
	call	_ZNSt15__new_allocatorIcED2Ev
	nop
	jmp	.L164
.L479:
	movq	%rax, %rbx
.L164:
	leaq	2048(%rbp), %rax
	movq	%rax, %rcx
	call	_ZNSt7__cxx1112basic_stringIcSt11char_traitsIcESaIcEED1Ev
	jmp	.L165
.L478:
	movq	%rax, %rbx
.L165:
	leaq	2095(%rbp), %rax
	movq	%rax, %rcx
	call	_ZNSt15__new_allocatorIcED2Ev
	nop
	movq	%rbx, %rax
	movq	%rax, %rcx
	call	_Unwind_Resume
.L487:
	movq	%rax, %rbx
	leaq	2304(%rbp), %rax
	movq	%rax, %rcx
	call	_ZNSt7__cxx1112basic_stringIcSt11char_traitsIcESaIcEED1Ev
	jmp	.L167
.L486:
	movq	%rax, %rbx
.L167:
	leaq	2351(%rbp), %rax
	movq	%rax, %rcx
	call	_ZNSt15__new_allocatorIcED2Ev
	nop
	leaq	2192(%rbp), %rax
	movq	%rax, %rcx
	call	_ZN5ValueD1Ev
	jmp	.L168
.L485:
	movq	%rax, %rbx
.L168:
	leaq	2256(%rbp), %rax
	movq	%rax, %rcx
	call	_ZNSt7__cxx1112basic_stringIcSt11char_traitsIcESaIcEED1Ev
	jmp	.L169
.L484:
	movq	%rax, %rbx
.L169:
	leaq	2303(%rbp), %rax
	movq	%rax, %rcx
	call	_ZNSt15__new_allocatorIcED2Ev
	nop
	movq	%rbx, %rax
	movq	%rax, %rcx
	call	_Unwind_Resume
.L489:
	movq	%rax, %rbx
	leaq	2352(%rbp), %rax
	movq	%rax, %rcx
	call	_ZNSt7__cxx1112basic_stringIcSt11char_traitsIcESaIcEED1Ev
	jmp	.L171
.L488:
	movq	%rax, %rbx
.L171:
	leaq	2399(%rbp), %rax
	movq	%rax, %rcx
	call	_ZNSt15__new_allocatorIcED2Ev
	nop
	movq	%rbx, %rax
	movq	%rax, %rcx
	call	_Unwind_Resume
.L493:
	movq	%rax, %rbx
	leaq	2576(%rbp), %rax
	movq	%rax, %rcx
	call	_ZNSt7__cxx1112basic_stringIcSt11char_traitsIcESaIcEED1Ev
	jmp	.L173
.L492:
	movq	%rax, %rbx
.L173:
	leaq	2623(%rbp), %rax
	movq	%rax, %rcx
	call	_ZNSt15__new_allocatorIcED2Ev
	nop
	leaq	2464(%rbp), %rax
	movq	%rax, %rcx
	call	_ZN5ValueD1Ev
	jmp	.L174
.L491:
	movq	%rax, %rbx
.L174:
	leaq	2528(%rbp), %rax
	movq	%rax, %rcx
	call	_ZNSt7__cxx1112basic_stringIcSt11char_traitsIcESaIcEED1Ev
	jmp	.L175
.L490:
	movq	%rax, %rbx
.L175:
	leaq	2575(%rbp), %rax
	movq	%rax, %rcx
	call	_ZNSt15__new_allocatorIcED2Ev
	nop
	movq	%rbx, %rax
	movq	%rax, %rcx
	call	_Unwind_Resume
.L495:
	movq	%rax, %rbx
	leaq	2624(%rbp), %rax
	movq	%rax, %rcx
	call	_ZNSt7__cxx1112basic_stringIcSt11char_traitsIcESaIcEED1Ev
	jmp	.L177
.L494:
	movq	%rax, %rbx
.L177:
	leaq	2671(%rbp), %rax
	movq	%rax, %rcx
	call	_ZNSt15__new_allocatorIcED2Ev
	nop
	movq	%rbx, %rax
	movq	%rax, %rcx
	call	_Unwind_Resume
.L498:
	movq	%rax, %rbx
	leaq	2736(%rbp), %rax
	movq	%rax, %rcx
	call	_ZN5ValueD1Ev
	jmp	.L179
.L497:
	movq	%rax, %rbx
.L179:
	leaq	2800(%rbp), %rax
	movq	%rax, %rcx
	call	_ZNSt7__cxx1112basic_stringIcSt11char_traitsIcESaIcEED1Ev
	jmp	.L180
.L496:
	movq	%rax, %rbx
.L180:
	leaq	2847(%rbp), %rax
	movq	%rax, %rcx
	call	_ZNSt15__new_allocatorIcED2Ev
	nop
	movq	%rbx, %rax
	movq	%rax, %rcx
	call	_Unwind_Resume
.L501:
	movq	%rax, %rbx
	leaq	2896(%rbp), %rax
	movq	%rax, %rcx
	call	_ZN5ValueD1Ev
	jmp	.L182
.L500:
	movq	%rax, %rbx
.L182:
	leaq	2848(%rbp), %rax
	movq	%rax, %rcx
	call	_ZNSt7__cxx1112basic_stringIcSt11char_traitsIcESaIcEED1Ev
	jmp	.L183
.L499:
	movq	%rax, %rbx
.L183:
	leaq	2895(%rbp), %rax
	movq	%rax, %rcx
	call	_ZNSt15__new_allocatorIcED2Ev
	nop
	movq	%rbx, %rax
	movq	%rax, %rcx
	call	_Unwind_Resume
.L504:
	movq	%rax, %rbx
	leaq	2960(%rbp), %rax
	movq	%rax, %rcx
	call	_ZN5ValueD1Ev
	jmp	.L185
.L503:
	movq	%rax, %rbx
.L185:
	leaq	3024(%rbp), %rax
	movq	%rax, %rcx
	call	_ZNSt7__cxx1112basic_stringIcSt11char_traitsIcESaIcEED1Ev
	jmp	.L186
.L502:
	movq	%rax, %rbx
.L186:
	leaq	3071(%rbp), %rax
	movq	%rax, %rcx
	call	_ZNSt15__new_allocatorIcED2Ev
	nop
	movq	%rbx, %rax
	movq	%rax, %rcx
	call	_Unwind_Resume
.L507:
	movq	%rax, %rbx
	leaq	3120(%rbp), %rax
	movq	%rax, %rcx
	call	_ZN5ValueD1Ev
	jmp	.L188
.L506:
	movq	%rax, %rbx
.L188:
	leaq	3072(%rbp), %rax
	movq	%rax, %rcx
	call	_ZNSt7__cxx1112basic_stringIcSt11char_traitsIcESaIcEED1Ev
	jmp	.L189
.L505:
	movq	%rax, %rbx
.L189:
	leaq	3119(%rbp), %rax
	movq	%rax, %rcx
	call	_ZNSt15__new_allocatorIcED2Ev
	nop
	movq	%rbx, %rax
	movq	%rax, %rcx
	call	_Unwind_Resume
.L510:
	movq	%rax, %rbx
	leaq	3184(%rbp), %rax
	movq	%rax, %rcx
	call	_ZN5ValueD1Ev
	jmp	.L191
.L509:
	movq	%rax, %rbx
.L191:
	leaq	3248(%rbp), %rax
	movq	%rax, %rcx
	call	_ZNSt7__cxx1112basic_stringIcSt11char_traitsIcESaIcEED1Ev
	jmp	.L192
.L508:
	movq	%rax, %rbx
.L192:
	leaq	3295(%rbp), %rax
	movq	%rax, %rcx
	call	_ZNSt15__new_allocatorIcED2Ev
	nop
	movq	%rbx, %rax
	movq	%rax, %rcx
	call	_Unwind_Resume
.L512:
	movq	%rax, %rbx
	leaq	3360(%rbp), %rax
	movq	%rax, %rcx
	call	_ZNSt7__cxx1112basic_stringIcSt11char_traitsIcESaIcEED1Ev
	jmp	.L194
.L511:
	movq	%rax, %rbx
.L194:
	leaq	3407(%rbp), %rax
	movq	%rax, %rcx
	call	_ZNSt15__new_allocatorIcED2Ev
	nop
	leaq	3296(%rbp), %rax
	movq	%rax, %rcx
	call	_ZN5ValueD1Ev
	movq	%rbx, %rax
	movq	%rax, %rcx
	call	_Unwind_Resume
.L514:
	movq	%rax, %rbx
	leaq	3472(%rbp), %rax
	movq	%rax, %rcx
	call	_ZNSt7__cxx1112basic_stringIcSt11char_traitsIcESaIcEED1Ev
	jmp	.L196
.L513:
	movq	%rax, %rbx
.L196:
	leaq	3519(%rbp), %rax
	movq	%rax, %rcx
	call	_ZNSt15__new_allocatorIcED2Ev
	nop
	leaq	3408(%rbp), %rax
	movq	%rax, %rcx
	call	_ZN5ValueD1Ev
	movq	%rbx, %rax
	movq	%rax, %rcx
	call	_Unwind_Resume
.L524:
	movq	%rax, %rbx
	leaq	3776(%rbp), %rax
	movq	%rax, %rcx
	call	_ZNSt7__cxx1112basic_stringIcSt11char_traitsIcESaIcEED1Ev
	jmp	.L198
.L523:
	movq	%rax, %rbx
.L198:
	leaq	3823(%rbp), %rax
	movq	%rax, %rcx
	call	_ZNSt15__new_allocatorIcED2Ev
	nop
	jmp	.L199
.L522:
	movq	%rax, %rbx
.L199:
	leaq	3728(%rbp), %rax
	movq	%rax, %rcx
	call	_ZNSt7__cxx1112basic_stringIcSt11char_traitsIcESaIcEED1Ev
	jmp	.L200
.L521:
	movq	%rax, %rbx
.L200:
	leaq	3775(%rbp), %rax
	movq	%rax, %rcx
	call	_ZNSt15__new_allocatorIcED2Ev
	nop
	jmp	.L201
.L520:
	movq	%rax, %rbx
.L201:
	leaq	3680(%rbp), %rax
	movq	%rax, %rcx
	call	_ZNSt7__cxx1112basic_stringIcSt11char_traitsIcESaIcEED1Ev
	jmp	.L202
.L519:
	movq	%rax, %rbx
.L202:
	leaq	3727(%rbp), %rax
	movq	%rax, %rcx
	call	_ZNSt15__new_allocatorIcED2Ev
	nop
	leaq	3520(%rbp), %rax
	movq	%rax, %rcx
	call	_ZN5ValueD1Ev
	jmp	.L203
.L518:
	movq	%rax, %rbx
.L203:
	leaq	3632(%rbp), %rax
	movq	%rax, %rcx
	call	_ZNSt7__cxx1112basic_stringIcSt11char_traitsIcESaIcEED1Ev
	jmp	.L204
.L517:
	movq	%rax, %rbx
.L204:
	leaq	3679(%rbp), %rax
	movq	%rax, %rcx
	call	_ZNSt15__new_allocatorIcED2Ev
	nop
	jmp	.L205
.L516:
	movq	%rax, %rbx
.L205:
	leaq	3584(%rbp), %rax
	movq	%rax, %rcx
	call	_ZNSt7__cxx1112basic_stringIcSt11char_traitsIcESaIcEED1Ev
	jmp	.L206
.L515:
	movq	%rax, %rbx
.L206:
	leaq	3631(%rbp), %rax
	movq	%rax, %rcx
	call	_ZNSt15__new_allocatorIcED2Ev
	nop
	movq	%rbx, %rax
	movq	%rax, %rcx
	call	_Unwind_Resume
.L534:
	movq	%rax, %rbx
	leaq	4080(%rbp), %rax
	movq	%rax, %rcx
	call	_ZNSt7__cxx1112basic_stringIcSt11char_traitsIcESaIcEED1Ev
	jmp	.L208
.L533:
	movq	%rax, %rbx
.L208:
	leaq	4127(%rbp), %rax
	movq	%rax, %rcx
	call	_ZNSt15__new_allocatorIcED2Ev
	nop
	jmp	.L209
.L532:
	movq	%rax, %rbx
.L209:
	leaq	4032(%rbp), %rax
	movq	%rax, %rcx
	call	_ZNSt7__cxx1112basic_stringIcSt11char_traitsIcESaIcEED1Ev
	jmp	.L210
.L531:
	movq	%rax, %rbx
.L210:
	leaq	4079(%rbp), %rax
	movq	%rax, %rcx
	call	_ZNSt15__new_allocatorIcED2Ev
	nop
	jmp	.L211
.L530:
	movq	%rax, %rbx
.L211:
	leaq	3984(%rbp), %rax
	movq	%rax, %rcx
	call	_ZNSt7__cxx1112basic_stringIcSt11char_traitsIcESaIcEED1Ev
	jmp	.L212
.L529:
	movq	%rax, %rbx
.L212:
	leaq	4031(%rbp), %rax
	movq	%rax, %rcx
	call	_ZNSt15__new_allocatorIcED2Ev
	nop
	leaq	3824(%rbp), %rax
	movq	%rax, %rcx
	call	_ZN5ValueD1Ev
	jmp	.L213
.L528:
	movq	%rax, %rbx
.L213:
	leaq	3936(%rbp), %rax
	movq	%rax, %rcx
	call	_ZNSt7__cxx1112basic_stringIcSt11char_traitsIcESaIcEED1Ev
	jmp	.L214
.L527:
	movq	%rax, %rbx
.L214:
	leaq	3983(%rbp), %rax
	movq	%rax, %rcx
	call	_ZNSt15__new_allocatorIcED2Ev
	nop
	jmp	.L215
.L526:
	movq	%rax, %rbx
.L215:
	leaq	3888(%rbp), %rax
	movq	%rax, %rcx
	call	_ZNSt7__cxx1112basic_stringIcSt11char_traitsIcESaIcEED1Ev
	jmp	.L216
.L525:
	movq	%rax, %rbx
.L216:
	leaq	3935(%rbp), %rax
	movq	%rax, %rcx
	call	_ZNSt15__new_allocatorIcED2Ev
	nop
	movq	%rbx, %rax
	movq	%rax, %rcx
	call	_Unwind_Resume
.L540:
	movq	%rax, %rbx
	leaq	4288(%rbp), %rax
	movq	%rax, %rcx
	call	_ZNSt7__cxx1112basic_stringIcSt11char_traitsIcESaIcEED1Ev
	jmp	.L218
.L539:
	movq	%rax, %rbx
.L218:
	leaq	4335(%rbp), %rax
	movq	%rax, %rcx
	call	_ZNSt15__new_allocatorIcED2Ev
	nop
	jmp	.L219
.L538:
	movq	%rax, %rbx
.L219:
	leaq	4240(%rbp), %rax
	movq	%rax, %rcx
	call	_ZNSt7__cxx1112basic_stringIcSt11char_traitsIcESaIcEED1Ev
	jmp	.L220
.L537:
	movq	%rax, %rbx
.L220:
	leaq	4287(%rbp), %rax
	movq	%rax, %rcx
	call	_ZNSt15__new_allocatorIcED2Ev
	nop
	jmp	.L221
.L536:
	movq	%rax, %rbx
.L221:
	leaq	4192(%rbp), %rax
	movq	%rax, %rcx
	call	_ZNSt7__cxx1112basic_stringIcSt11char_traitsIcESaIcEED1Ev
	jmp	.L222
.L535:
	movq	%rax, %rbx
.L222:
	leaq	4239(%rbp), %rax
	movq	%rax, %rcx
	call	_ZNSt15__new_allocatorIcED2Ev
	nop
	leaq	4128(%rbp), %rax
	movq	%rax, %rcx
	call	_ZN5ValueD1Ev
	movq	%rbx, %rax
	movq	%rax, %rcx
	call	_Unwind_Resume
.L544:
	movq	%rax, %rbx
	leaq	4448(%rbp), %rax
	movq	%rax, %rcx
	call	_ZNSt7__cxx1112basic_stringIcSt11char_traitsIcESaIcEED1Ev
	jmp	.L224
.L543:
	movq	%rax, %rbx
.L224:
	leaq	4495(%rbp), %rax
	movq	%rax, %rcx
	call	_ZNSt15__new_allocatorIcED2Ev
	nop
	leaq	4336(%rbp), %rax
	movq	%rax, %rcx
	call	_ZN5ValueD1Ev
	jmp	.L225
.L542:
	movq	%rax, %rbx
.L225:
	leaq	4400(%rbp), %rax
	movq	%rax, %rcx
	call	_ZNSt7__cxx1112basic_stringIcSt11char_traitsIcESaIcEED1Ev
	jmp	.L226
.L541:
	movq	%rax, %rbx
.L226:
	leaq	4447(%rbp), %rax
	movq	%rax, %rcx
	call	_ZNSt15__new_allocatorIcED2Ev
	nop
	movq	%rbx, %rax
	movq	%rax, %rcx
	call	_Unwind_Resume
.L546:
	movq	%rax, %rbx
	leaq	4496(%rbp), %rax
	movq	%rax, %rcx
	call	_ZNSt7__cxx1112basic_stringIcSt11char_traitsIcESaIcEED1Ev
	jmp	.L228
.L545:
	movq	%rax, %rbx
.L228:
	leaq	4543(%rbp), %rax
	movq	%rax, %rcx
	call	_ZNSt15__new_allocatorIcED2Ev
	nop
	movq	%rbx, %rax
	movq	%rax, %rcx
	call	_Unwind_Resume
.L550:
	movq	%rax, %rbx
	leaq	4720(%rbp), %rax
	movq	%rax, %rcx
	call	_ZNSt7__cxx1112basic_stringIcSt11char_traitsIcESaIcEED1Ev
	jmp	.L230
.L549:
	movq	%rax, %rbx
.L230:
	leaq	4767(%rbp), %rax
	movq	%rax, %rcx
	call	_ZNSt15__new_allocatorIcED2Ev
	nop
	leaq	4608(%rbp), %rax
	movq	%rax, %rcx
	call	_ZN5ValueD1Ev
	jmp	.L231
.L548:
	movq	%rax, %rbx
.L231:
	leaq	4672(%rbp), %rax
	movq	%rax, %rcx
	call	_ZNSt7__cxx1112basic_stringIcSt11char_traitsIcESaIcEED1Ev
	jmp	.L232
.L547:
	movq	%rax, %rbx
.L232:
	leaq	4719(%rbp), %rax
	movq	%rax, %rcx
	call	_ZNSt15__new_allocatorIcED2Ev
	nop
	movq	%rbx, %rax
	movq	%rax, %rcx
	call	_Unwind_Resume
.L552:
	movq	%rax, %rbx
	leaq	4768(%rbp), %rax
	movq	%rax, %rcx
	call	_ZNSt7__cxx1112basic_stringIcSt11char_traitsIcESaIcEED1Ev
	jmp	.L234
.L551:
	movq	%rax, %rbx
.L234:
	leaq	4815(%rbp), %rax
	movq	%rax, %rcx
	call	_ZNSt15__new_allocatorIcED2Ev
	nop
	movq	%rbx, %rax
	movq	%rax, %rcx
	call	_Unwind_Resume
.L554:
	movq	%rax, %rbx
	leaq	4944(%rbp), %rax
	movq	%rax, %rcx
	call	_ZNSt7__cxx1112basic_stringIcSt11char_traitsIcESaIcEED1Ev
	jmp	.L236
.L553:
	movq	%rax, %rbx
.L236:
	leaq	4991(%rbp), %rax
	movq	%rax, %rcx
	call	_ZNSt15__new_allocatorIcED2Ev
	nop
	leaq	4880(%rbp), %rax
	movq	%rax, %rcx
	call	_ZN5ValueD1Ev
	movq	%rbx, %rax
	movq	%rax, %rcx
	call	_Unwind_Resume
.L556:
	movq	%rax, %rbx
	leaq	5056(%rbp), %rax
	movq	%rax, %rcx
	call	_ZNSt7__cxx1112basic_stringIcSt11char_traitsIcESaIcEED1Ev
	jmp	.L238
.L555:
	movq	%rax, %rbx
.L238:
	leaq	5103(%rbp), %rax
	movq	%rax, %rcx
	call	_ZNSt15__new_allocatorIcED2Ev
	nop
	leaq	4992(%rbp), %rax
	movq	%rax, %rcx
	call	_ZN5ValueD1Ev
	movq	%rbx, %rax
	movq	%rax, %rcx
	call	_Unwind_Resume
.L558:
	movq	%rax, %rbx
	leaq	5168(%rbp), %rax
	movq	%rax, %rcx
	call	_ZNSt7__cxx1112basic_stringIcSt11char_traitsIcESaIcEED1Ev
	jmp	.L240
.L557:
	movq	%rax, %rbx
.L240:
	leaq	5215(%rbp), %rax
	movq	%rax, %rcx
	call	_ZNSt15__new_allocatorIcED2Ev
	nop
	leaq	5104(%rbp), %rax
	movq	%rax, %rcx
	call	_ZN5ValueD1Ev
	movq	%rbx, %rax
	movq	%rax, %rcx
	call	_Unwind_Resume
.L572:
	movq	%rax, %rbx
	leaq	5568(%rbp), %rax
	movq	%rax, %rcx
	call	_ZNSt7__cxx1112basic_stringIcSt11char_traitsIcESaIcEED1Ev
	jmp	.L242
.L571:
	movq	%rax, %rbx
.L242:
	leaq	5615(%rbp), %rax
	movq	%rax, %rcx
	call	_ZNSt15__new_allocatorIcED2Ev
	nop
	leaq	5216(%rbp), %rax
	movq	%rax, %rcx
	call	_ZN5ValueD1Ev
	jmp	.L243
.L570:
	movq	%rax, %rbx
.L243:
	leaq	5520(%rbp), %rax
	movq	%rax, %rcx
	call	_ZNSt7__cxx1112basic_stringIcSt11char_traitsIcESaIcEED1Ev
	jmp	.L244
.L569:
	movq	%rax, %rbx
.L244:
	leaq	5567(%rbp), %rax
	movq	%rax, %rcx
	call	_ZNSt15__new_allocatorIcED2Ev
	nop
	jmp	.L245
.L568:
	movq	%rax, %rbx
.L245:
	leaq	5472(%rbp), %rax
	movq	%rax, %rcx
	call	_ZNSt7__cxx1112basic_stringIcSt11char_traitsIcESaIcEED1Ev
	jmp	.L246
.L567:
	movq	%rax, %rbx
.L246:
	leaq	5519(%rbp), %rax
	movq	%rax, %rcx
	call	_ZNSt15__new_allocatorIcED2Ev
	nop
	jmp	.L247
.L566:
	movq	%rax, %rbx
.L247:
	leaq	5424(%rbp), %rax
	movq	%rax, %rcx
	call	_ZNSt7__cxx1112basic_stringIcSt11char_traitsIcESaIcEED1Ev
	jmp	.L248
.L565:
	movq	%rax, %rbx
.L248:
	leaq	5471(%rbp), %rax
	movq	%rax, %rcx
	call	_ZNSt15__new_allocatorIcED2Ev
	nop
	jmp	.L249
.L564:
	movq	%rax, %rbx
.L249:
	leaq	5376(%rbp), %rax
	movq	%rax, %rcx
	call	_ZNSt7__cxx1112basic_stringIcSt11char_traitsIcESaIcEED1Ev
	jmp	.L250
.L563:
	movq	%rax, %rbx
.L250:
	leaq	5423(%rbp), %rax
	movq	%rax, %rcx
	call	_ZNSt15__new_allocatorIcED2Ev
	nop
	jmp	.L251
.L562:
	movq	%rax, %rbx
.L251:
	leaq	5328(%rbp), %rax
	movq	%rax, %rcx
	call	_ZNSt7__cxx1112basic_stringIcSt11char_traitsIcESaIcEED1Ev
	jmp	.L252
.L561:
	movq	%rax, %rbx
.L252:
	leaq	5375(%rbp), %rax
	movq	%rax, %rcx
	call	_ZNSt15__new_allocatorIcED2Ev
	nop
	jmp	.L253
.L560:
	movq	%rax, %rbx
.L253:
	leaq	5280(%rbp), %rax
	movq	%rax, %rcx
	call	_ZNSt7__cxx1112basic_stringIcSt11char_traitsIcESaIcEED1Ev
	jmp	.L254
.L559:
	movq	%rax, %rbx
.L254:
	leaq	5327(%rbp), %rax
	movq	%rax, %rcx
	call	_ZNSt15__new_allocatorIcED2Ev
	nop
	movq	%rbx, %rax
	movq	%rax, %rcx
	call	_Unwind_Resume
.L586:
	movq	%rax, %rbx
	leaq	5968(%rbp), %rax
	movq	%rax, %rcx
	call	_ZNSt7__cxx1112basic_stringIcSt11char_traitsIcESaIcEED1Ev
	jmp	.L256
.L585:
	movq	%rax, %rbx
.L256:
	leaq	6015(%rbp), %rax
	movq	%rax, %rcx
	call	_ZNSt15__new_allocatorIcED2Ev
	nop
	jmp	.L257
.L584:
	movq	%rax, %rbx
.L257:
	leaq	5920(%rbp), %rax
	movq	%rax, %rcx
	call	_ZNSt7__cxx1112basic_stringIcSt11char_traitsIcESaIcEED1Ev
	jmp	.L258
.L583:
	movq	%rax, %rbx
.L258:
	leaq	5967(%rbp), %rax
	movq	%rax, %rcx
	call	_ZNSt15__new_allocatorIcED2Ev
	nop
	jmp	.L259
.L582:
	movq	%rax, %rbx
.L259:
	leaq	5872(%rbp), %rax
	movq	%rax, %rcx
	call	_ZNSt7__cxx1112basic_stringIcSt11char_traitsIcESaIcEED1Ev
	jmp	.L260
.L581:
	movq	%rax, %rbx
.L260:
	leaq	5919(%rbp), %rax
	movq	%rax, %rcx
	call	_ZNSt15__new_allocatorIcED2Ev
	nop
	leaq	5616(%rbp), %rax
	movq	%rax, %rcx
	call	_ZN5ValueD1Ev
	jmp	.L261
.L580:
	movq	%rax, %rbx
.L261:
	leaq	5824(%rbp), %rax
	movq	%rax, %rcx
	call	_ZNSt7__cxx1112basic_stringIcSt11char_traitsIcESaIcEED1Ev
	jmp	.L262
.L579:
	movq	%rax, %rbx
.L262:
	leaq	5871(%rbp), %rax
	movq	%rax, %rcx
	call	_ZNSt15__new_allocatorIcED2Ev
	nop
	jmp	.L263
.L578:
	movq	%rax, %rbx
.L263:
	leaq	5776(%rbp), %rax
	movq	%rax, %rcx
	call	_ZNSt7__cxx1112basic_stringIcSt11char_traitsIcESaIcEED1Ev
	jmp	.L264
.L577:
	movq	%rax, %rbx
.L264:
	leaq	5823(%rbp), %rax
	movq	%rax, %rcx
	call	_ZNSt15__new_allocatorIcED2Ev
	nop
	jmp	.L265
.L576:
	movq	%rax, %rbx
.L265:
	leaq	5728(%rbp), %rax
	movq	%rax, %rcx
	call	_ZNSt7__cxx1112basic_stringIcSt11char_traitsIcESaIcEED1Ev
	jmp	.L266
.L575:
	movq	%rax, %rbx
.L266:
	leaq	5775(%rbp), %rax
	movq	%rax, %rcx
	call	_ZNSt15__new_allocatorIcED2Ev
	nop
	jmp	.L267
.L574:
	movq	%rax, %rbx
.L267:
	leaq	5680(%rbp), %rax
	movq	%rax, %rcx
	call	_ZNSt7__cxx1112basic_stringIcSt11char_traitsIcESaIcEED1Ev
	jmp	.L268
.L573:
	movq	%rax, %rbx
.L268:
	leaq	5727(%rbp), %rax
	movq	%rax, %rcx
	call	_ZNSt15__new_allocatorIcED2Ev
	nop
	movq	%rbx, %rax
	movq	%rax, %rcx
	call	_Unwind_Resume
.L590:
	movq	%rax, %rbx
	leaq	6128(%rbp), %rax
	movq	%rax, %rcx
	call	_ZNSt7__cxx1112basic_stringIcSt11char_traitsIcESaIcEED1Ev
	jmp	.L270
.L589:
	movq	%rax, %rbx
.L270:
	leaq	6175(%rbp), %rax
	movq	%rax, %rcx
	call	_ZNSt15__new_allocatorIcED2Ev
	nop
	leaq	6016(%rbp), %rax
	movq	%rax, %rcx
	call	_ZN5ValueD1Ev
	jmp	.L271
.L588:
	movq	%rax, %rbx
.L271:
	leaq	6080(%rbp), %rax
	movq	%rax, %rcx
	call	_ZNSt7__cxx1112basic_stringIcSt11char_traitsIcESaIcEED1Ev
	jmp	.L272
.L587:
	movq	%rax, %rbx
.L272:
	leaq	6127(%rbp), %rax
	movq	%rax, %rcx
	call	_ZNSt15__new_allocatorIcED2Ev
	nop
	movq	%rbx, %rax
	movq	%rax, %rcx
	call	_Unwind_Resume
.L592:
	movq	%rax, %rbx
	leaq	6176(%rbp), %rax
	movq	%rax, %rcx
	call	_ZNSt7__cxx1112basic_stringIcSt11char_traitsIcESaIcEED1Ev
	jmp	.L274
.L591:
	movq	%rax, %rbx
.L274:
	leaq	6223(%rbp), %rax
	movq	%rax, %rcx
	call	_ZNSt15__new_allocatorIcED2Ev
	nop
	movq	%rbx, %rax
	movq	%rax, %rcx
	call	_Unwind_Resume
.L596:
	movq	%rax, %rbx
	leaq	6400(%rbp), %rax
	movq	%rax, %rcx
	call	_ZNSt7__cxx1112basic_stringIcSt11char_traitsIcESaIcEED1Ev
	jmp	.L276
.L595:
	movq	%rax, %rbx
.L276:
	leaq	6447(%rbp), %rax
	movq	%rax, %rcx
	call	_ZNSt15__new_allocatorIcED2Ev
	nop
	leaq	6288(%rbp), %rax
	movq	%rax, %rcx
	call	_ZN5ValueD1Ev
	jmp	.L277
.L594:
	movq	%rax, %rbx
.L277:
	leaq	6352(%rbp), %rax
	movq	%rax, %rcx
	call	_ZNSt7__cxx1112basic_stringIcSt11char_traitsIcESaIcEED1Ev
	jmp	.L278
.L593:
	movq	%rax, %rbx
.L278:
	leaq	6399(%rbp), %rax
	movq	%rax, %rcx
	call	_ZNSt15__new_allocatorIcED2Ev
	nop
	movq	%rbx, %rax
	movq	%rax, %rcx
	call	_Unwind_Resume
.L598:
	movq	%rax, %rbx
	leaq	6448(%rbp), %rax
	movq	%rax, %rcx
	call	_ZNSt7__cxx1112basic_stringIcSt11char_traitsIcESaIcEED1Ev
	jmp	.L280
.L597:
	movq	%rax, %rbx
.L280:
	leaq	6495(%rbp), %rax
	movq	%rax, %rcx
	call	_ZNSt15__new_allocatorIcED2Ev
	nop
	movq	%rbx, %rax
	movq	%rax, %rcx
	call	_Unwind_Resume
.L602:
	movq	%rax, %rbx
	leaq	6672(%rbp), %rax
	movq	%rax, %rcx
	call	_ZNSt7__cxx1112basic_stringIcSt11char_traitsIcESaIcEED1Ev
	jmp	.L282
.L601:
	movq	%rax, %rbx
.L282:
	leaq	6719(%rbp), %rax
	movq	%rax, %rcx
	call	_ZNSt15__new_allocatorIcED2Ev
	nop
	leaq	6560(%rbp), %rax
	movq	%rax, %rcx
	call	_ZN5ValueD1Ev
	jmp	.L283
.L600:
	movq	%rax, %rbx
.L283:
	leaq	6624(%rbp), %rax
	movq	%rax, %rcx
	call	_ZNSt7__cxx1112basic_stringIcSt11char_traitsIcESaIcEED1Ev
	jmp	.L284
.L599:
	movq	%rax, %rbx
.L284:
	leaq	6671(%rbp), %rax
	movq	%rax, %rcx
	call	_ZNSt15__new_allocatorIcED2Ev
	nop
	movq	%rbx, %rax
	movq	%rax, %rcx
	call	_Unwind_Resume
.L604:
	movq	%rax, %rbx
	leaq	6720(%rbp), %rax
	movq	%rax, %rcx
	call	_ZNSt7__cxx1112basic_stringIcSt11char_traitsIcESaIcEED1Ev
	jmp	.L286
.L603:
	movq	%rax, %rbx
.L286:
	leaq	6767(%rbp), %rax
	movq	%rax, %rcx
	call	_ZNSt15__new_allocatorIcED2Ev
	nop
	movq	%rbx, %rax
	movq	%rax, %rcx
	call	_Unwind_Resume
.L607:
	movq	%rax, %rbx
	leaq	6832(%rbp), %rax
	movq	%rax, %rcx
	call	_ZN5ValueD1Ev
	jmp	.L288
.L606:
	movq	%rax, %rbx
.L288:
	leaq	6896(%rbp), %rax
	movq	%rax, %rcx
	call	_ZNSt7__cxx1112basic_stringIcSt11char_traitsIcESaIcEED1Ev
	jmp	.L289
.L605:
	movq	%rax, %rbx
.L289:
	leaq	6943(%rbp), %rax
	movq	%rax, %rcx
	call	_ZNSt15__new_allocatorIcED2Ev
	nop
	movq	%rbx, %rax
	movq	%rax, %rcx
	call	_Unwind_Resume
.L611:
	movq	%rax, %rbx
	leaq	7056(%rbp), %rax
	movq	%rax, %rcx
	call	_ZN5ValueD1Ev
	jmp	.L291
.L610:
	movq	%rax, %rbx
.L291:
	leaq	6992(%rbp), %rax
	movq	%rax, %rcx
	call	_ZN5ValueD1Ev
	jmp	.L292
.L609:
	movq	%rax, %rbx
.L292:
	leaq	6944(%rbp), %rax
	movq	%rax, %rcx
	call	_ZNSt7__cxx1112basic_stringIcSt11char_traitsIcESaIcEED1Ev
	jmp	.L293
.L608:
	movq	%rax, %rbx
.L293:
	leaq	6991(%rbp), %rax
	movq	%rax, %rcx
	call	_ZNSt15__new_allocatorIcED2Ev
	nop
	movq	%rbx, %rax
	movq	%rax, %rcx
	call	_Unwind_Resume
.L614:
	movq	%rax, %rbx
	leaq	7120(%rbp), %rax
	movq	%rax, %rcx
	call	_ZN5ValueD1Ev
	jmp	.L295
.L613:
	movq	%rax, %rbx
.L295:
	leaq	7184(%rbp), %rax
	movq	%rax, %rcx
	call	_ZNSt7__cxx1112basic_stringIcSt11char_traitsIcESaIcEED1Ev
	jmp	.L296
.L612:
	movq	%rax, %rbx
.L296:
	leaq	7231(%rbp), %rax
	movq	%rax, %rcx
	call	_ZNSt15__new_allocatorIcED2Ev
	nop
	movq	%rbx, %rax
	movq	%rax, %rcx
	call	_Unwind_Resume
.L616:
	movq	%rax, %rdi
	leaq	7296(%rbp), %rax
	movq	%rax, %rcx
	call	_ZNSt7__cxx1112basic_stringIcSt11char_traitsIcESaIcEED1Ev
	jmp	.L298
.L615:
	movq	%rax, %rdi
.L298:
	leaq	7343(%rbp), %rax
	movq	%rax, %rcx
	call	_ZNSt15__new_allocatorIcED2Ev
	nop
	leaq	7232(%rbp), %rax
	movq	%rax, %rcx
	call	_ZN5ValueD1Ev
	testb	%sil, %sil
	je	.L299
	movl	$48, %edx
	movq	%rbx, %rcx
	call	_ZdlPvy
.L299:
	movq	%rdi, %rax
	movq	%rax, %rcx
	call	_Unwind_Resume
.L620:
	movq	%rax, %rbx
	leaq	7456(%rbp), %rax
	movq	%rax, %rcx
	call	_ZNSt7__cxx1112basic_stringIcSt11char_traitsIcESaIcEED1Ev
	jmp	.L301
.L619:
	movq	%rax, %rbx
.L301:
	leaq	7503(%rbp), %rax
	movq	%rax, %rcx
	call	_ZNSt15__new_allocatorIcED2Ev
	nop
	jmp	.L302
.L618:
	movq	%rax, %rbx
.L302:
	leaq	7408(%rbp), %rax
	movq	%rax, %rcx
	call	_ZNSt7__cxx1112basic_stringIcSt11char_traitsIcESaIcEED1Ev
	jmp	.L303
.L617:
	movq	%rax, %rbx
.L303:
	leaq	7455(%rbp), %rax
	movq	%rax, %rcx
	call	_ZNSt15__new_allocatorIcED2Ev
	nop
	leaq	7344(%rbp), %rax
	movq	%rax, %rcx
	call	_ZN5ValueD1Ev
	movq	%rbx, %rax
	movq	%rax, %rcx
	call	_Unwind_Resume
.L624:
	movq	%rax, %rbx
	leaq	7616(%rbp), %rax
	movq	%rax, %rcx
	call	_ZNSt7__cxx1112basic_stringIcSt11char_traitsIcESaIcEED1Ev
	jmp	.L305
.L623:
	movq	%rax, %rbx
.L305:
	leaq	7663(%rbp), %rax
	movq	%rax, %rcx
	call	_ZNSt15__new_allocatorIcED2Ev
	nop
	jmp	.L306
.L622:
	movq	%rax, %rbx
.L306:
	leaq	7568(%rbp), %rax
	movq	%rax, %rcx
	call	_ZNSt7__cxx1112basic_stringIcSt11char_traitsIcESaIcEED1Ev
	jmp	.L307
.L621:
	movq	%rax, %rbx
.L307:
	leaq	7615(%rbp), %rax
	movq	%rax, %rcx
	call	_ZNSt15__new_allocatorIcED2Ev
	nop
	leaq	7504(%rbp), %rax
	movq	%rax, %rcx
	call	_ZN5ValueD1Ev
	movq	%rbx, %rax
	movq	%rax, %rcx
	call	_Unwind_Resume
.L628:
	movq	%rax, %rbx
	leaq	7776(%rbp), %rax
	movq	%rax, %rcx
	call	_ZNSt7__cxx1112basic_stringIcSt11char_traitsIcESaIcEED1Ev
	jmp	.L309
.L627:
	movq	%rax, %rbx
.L309:
	leaq	7823(%rbp), %rax
	movq	%rax, %rcx
	call	_ZNSt15__new_allocatorIcED2Ev
	nop
	jmp	.L310
.L626:
	movq	%rax, %rbx
.L310:
	leaq	7728(%rbp), %rax
	movq	%rax, %rcx
	call	_ZNSt7__cxx1112basic_stringIcSt11char_traitsIcESaIcEED1Ev
	jmp	.L311
.L625:
	movq	%rax, %rbx
.L311:
	leaq	7775(%rbp), %rax
	movq	%rax, %rcx
	call	_ZNSt15__new_allocatorIcED2Ev
	nop
	leaq	7664(%rbp), %rax
	movq	%rax, %rcx
	call	_ZN5ValueD1Ev
	movq	%rbx, %rax
	movq	%rax, %rcx
	call	_Unwind_Resume
.L632:
	movq	%rax, %rbx
	leaq	7936(%rbp), %rax
	movq	%rax, %rcx
	call	_ZNSt7__cxx1112basic_stringIcSt11char_traitsIcESaIcEED1Ev
	jmp	.L313
.L631:
	movq	%rax, %rbx
.L313:
	leaq	7983(%rbp), %rax
	movq	%rax, %rcx
	call	_ZNSt15__new_allocatorIcED2Ev
	nop
	jmp	.L314
.L630:
	movq	%rax, %rbx
.L314:
	leaq	7888(%rbp), %rax
	movq	%rax, %rcx
	call	_ZNSt7__cxx1112basic_stringIcSt11char_traitsIcESaIcEED1Ev
	jmp	.L315
.L629:
	movq	%rax, %rbx
.L315:
	leaq	7935(%rbp), %rax
	movq	%rax, %rcx
	call	_ZNSt15__new_allocatorIcED2Ev
	nop
	leaq	7824(%rbp), %rax
	movq	%rax, %rcx
	call	_ZN5ValueD1Ev
	movq	%rbx, %rax
	movq	%rax, %rcx
	call	_Unwind_Resume
.L634:
	movq	%rax, %rbx
	leaq	8048(%rbp), %rax
	movq	%rax, %rcx
	call	_ZNSt7__cxx1112basic_stringIcSt11char_traitsIcESaIcEED1Ev
	jmp	.L317
.L633:
	movq	%rax, %rbx
.L317:
	leaq	8095(%rbp), %rax
	movq	%rax, %rcx
	call	_ZNSt15__new_allocatorIcED2Ev
	nop
	leaq	7984(%rbp), %rax
	movq	%rax, %rcx
	call	_ZN5ValueD1Ev
	movq	%rbx, %rax
	movq	%rax, %rcx
	call	_Unwind_Resume
.L636:
	movq	%rax, %rbx
	leaq	8160(%rbp), %rax
	movq	%rax, %rcx
	call	_ZNSt7__cxx1112basic_stringIcSt11char_traitsIcESaIcEED1Ev
	jmp	.L319
.L635:
	movq	%rax, %rbx
.L319:
	leaq	8207(%rbp), %rax
	movq	%rax, %rcx
	call	_ZNSt15__new_allocatorIcED2Ev
	nop
	leaq	8096(%rbp), %rax
	movq	%rax, %rcx
	call	_ZN5ValueD1Ev
	movq	%rbx, %rax
	movq	%rax, %rcx
	call	_Unwind_Resume
.L639:
	movq	%rax, %rbx
	leaq	8208(%rbp), %rax
	movq	%rax, %rcx
	call	_ZN5ValueD1Ev
	jmp	.L321
.L638:
	movq	%rax, %rbx
.L321:
	leaq	8272(%rbp), %rax
	movq	%rax, %rcx
	call	_ZNSt7__cxx1112basic_stringIcSt11char_traitsIcESaIcEED1Ev
	jmp	.L322
.L637:
	movq	%rax, %rbx
.L322:
	leaq	8319(%rbp), %rax
	movq	%rax, %rcx
	call	_ZNSt15__new_allocatorIcED2Ev
	nop
	movq	%rbx, %rax
	movq	%rax, %rcx
	call	_Unwind_Resume
.L645:
	movq	%rax, %rbx
	leaq	8416(%rbp), %rax
	movq	%rax, %rcx
	call	_ZNSt7__cxx1112basic_stringIcSt11char_traitsIcESaIcEED1Ev
	jmp	.L324
.L644:
	movq	%rax, %rbx
.L324:
	leaq	8463(%rbp), %rax
	movq	%rax, %rcx
	call	_ZNSt15__new_allocatorIcED2Ev
	nop
	jmp	.L325
.L643:
	movq	%rax, %rbx
.L325:
	leaq	8368(%rbp), %rax
	movq	%rax, %rcx
	call	_ZNSt7__cxx1112basic_stringIcSt11char_traitsIcESaIcEED1Ev
	jmp	.L326
.L642:
	movq	%rax, %rbx
.L326:
	leaq	8415(%rbp), %rax
	movq	%rax, %rcx
	call	_ZNSt15__new_allocatorIcED2Ev
	nop
	jmp	.L327
.L641:
	movq	%rax, %rbx
.L327:
	leaq	8320(%rbp), %rax
	movq	%rax, %rcx
	call	_ZNSt7__cxx1112basic_stringIcSt11char_traitsIcESaIcEED1Ev
	jmp	.L328
.L640:
	movq	%rax, %rbx
.L328:
	leaq	8367(%rbp), %rax
	movq	%rax, %rcx
	call	_ZNSt15__new_allocatorIcED2Ev
	nop
	movq	%rbx, %rax
	movq	%rax, %rcx
	call	_Unwind_Resume
.L651:
	movq	%rax, %rbx
	leaq	8560(%rbp), %rax
	movq	%rax, %rcx
	call	_ZNSt7__cxx1112basic_stringIcSt11char_traitsIcESaIcEED1Ev
	jmp	.L330
.L650:
	movq	%rax, %rbx
.L330:
	leaq	8607(%rbp), %rax
	movq	%rax, %rcx
	call	_ZNSt15__new_allocatorIcED2Ev
	nop
	jmp	.L331
.L649:
	movq	%rax, %rbx
.L331:
	leaq	8512(%rbp), %rax
	movq	%rax, %rcx
	call	_ZNSt7__cxx1112basic_stringIcSt11char_traitsIcESaIcEED1Ev
	jmp	.L332
.L648:
	movq	%rax, %rbx
.L332:
	leaq	8559(%rbp), %rax
	movq	%rax, %rcx
	call	_ZNSt15__new_allocatorIcED2Ev
	nop
	jmp	.L333
.L647:
	movq	%rax, %rbx
.L333:
	leaq	8464(%rbp), %rax
	movq	%rax, %rcx
	call	_ZNSt7__cxx1112basic_stringIcSt11char_traitsIcESaIcEED1Ev
	jmp	.L334
.L646:
	movq	%rax, %rbx
.L334:
	leaq	8511(%rbp), %rax
	movq	%rax, %rcx
	call	_ZNSt15__new_allocatorIcED2Ev
	nop
	movq	%rbx, %rax
	movq	%rax, %rcx
	call	_Unwind_Resume
.L654:
	movq	%rax, %rbx
	leaq	8608(%rbp), %rax
	movq	%rax, %rcx
	call	_ZN5ValueD1Ev
	jmp	.L336
.L653:
	movq	%rax, %rbx
.L336:
	leaq	8672(%rbp), %rax
	movq	%rax, %rcx
	call	_ZNSt7__cxx1112basic_stringIcSt11char_traitsIcESaIcEED1Ev
	jmp	.L337
.L652:
	movq	%rax, %rbx
.L337:
	leaq	8719(%rbp), %rax
	movq	%rax, %rcx
	call	_ZNSt15__new_allocatorIcED2Ev
	nop
	movq	%rbx, %rax
	movq	%rax, %rcx
	call	_Unwind_Resume
.L658:
	movq	%rax, %rbx
	leaq	8832(%rbp), %rax
	movq	%rax, %rcx
	call	_ZNSt7__cxx1112basic_stringIcSt11char_traitsIcESaIcEED1Ev
	jmp	.L339
.L657:
	movq	%rax, %rbx
.L339:
	leaq	8879(%rbp), %rax
	movq	%rax, %rcx
	call	_ZNSt15__new_allocatorIcED2Ev
	nop
	jmp	.L340
.L656:
	movq	%rax, %rbx
.L340:
	leaq	8784(%rbp), %rax
	movq	%rax, %rcx
	call	_ZNSt7__cxx1112basic_stringIcSt11char_traitsIcESaIcEED1Ev
	jmp	.L341
.L655:
	movq	%rax, %rbx
.L341:
	leaq	8831(%rbp), %rax
	movq	%rax, %rcx
	call	_ZNSt15__new_allocatorIcED2Ev
	nop
	leaq	8720(%rbp), %rax
	movq	%rax, %rcx
	call	_ZN5ValueD1Ev
	movq	%rbx, %rax
	movq	%rax, %rcx
	call	_Unwind_Resume
.L662:
	movq	%rax, %rbx
	leaq	8928(%rbp), %rax
	movq	%rax, %rcx
	call	_ZNSt7__cxx1112basic_stringIcSt11char_traitsIcESaIcEED1Ev
	jmp	.L343
.L661:
	movq	%rax, %rbx
.L343:
	leaq	8975(%rbp), %rax
	movq	%rax, %rcx
	call	_ZNSt15__new_allocatorIcED2Ev
	nop
	jmp	.L344
.L660:
	movq	%rax, %rbx
.L344:
	leaq	8880(%rbp), %rax
	movq	%rax, %rcx
	call	_ZNSt7__cxx1112basic_stringIcSt11char_traitsIcESaIcEED1Ev
	jmp	.L345
.L659:
	movq	%rax, %rbx
.L345:
	leaq	8927(%rbp), %rax
	movq	%rax, %rcx
	call	_ZNSt15__new_allocatorIcED2Ev
	nop
	movq	%rbx, %rax
	movq	%rax, %rcx
	call	_Unwind_Resume
.L665:
	movq	%rax, %rbx
	leaq	9040(%rbp), %rax
	movq	%rax, %rcx
	call	_ZN5ValueD1Ev
	jmp	.L347
.L664:
	movq	%rax, %rbx
.L347:
	leaq	9104(%rbp), %rax
	movq	%rax, %rcx
	call	_ZNSt7__cxx1112basic_stringIcSt11char_traitsIcESaIcEED1Ev
	jmp	.L348
.L663:
	movq	%rax, %rbx
.L348:
	leaq	9151(%rbp), %rax
	movq	%rax, %rcx
	call	_ZNSt15__new_allocatorIcED2Ev
	nop
	movq	%rbx, %rax
	movq	%rax, %rcx
	call	_Unwind_Resume
.L669:
	movq	%rax, %rbx
	leaq	9264(%rbp), %rax
	movq	%rax, %rcx
	call	_ZNSt7__cxx1112basic_stringIcSt11char_traitsIcESaIcEED1Ev
	jmp	.L350
.L668:
	movq	%rax, %rbx
.L350:
	leaq	9311(%rbp), %rax
	movq	%rax, %rcx
	call	_ZNSt15__new_allocatorIcED2Ev
	nop
	jmp	.L351
.L667:
	movq	%rax, %rbx
.L351:
	leaq	9216(%rbp), %rax
	movq	%rax, %rcx
	call	_ZNSt7__cxx1112basic_stringIcSt11char_traitsIcESaIcEED1Ev
	jmp	.L352
.L666:
	movq	%rax, %rbx
.L352:
	leaq	9263(%rbp), %rax
	movq	%rax, %rcx
	call	_ZNSt15__new_allocatorIcED2Ev
	nop
	leaq	9152(%rbp), %rax
	movq	%rax, %rcx
	call	_ZN5ValueD1Ev
	movq	%rbx, %rax
	movq	%rax, %rcx
	call	_Unwind_Resume
.L675:
	movq	%rax, %rbx
	leaq	9408(%rbp), %rax
	movq	%rax, %rcx
	call	_ZNSt7__cxx1112basic_stringIcSt11char_traitsIcESaIcEED1Ev
	jmp	.L354
.L674:
	movq	%rax, %rbx
.L354:
	leaq	9455(%rbp), %rax
	movq	%rax, %rcx
	call	_ZNSt15__new_allocatorIcED2Ev
	nop
	jmp	.L355
.L673:
	movq	%rax, %rbx
.L355:
	leaq	9360(%rbp), %rax
	movq	%rax, %rcx
	call	_ZNSt7__cxx1112basic_stringIcSt11char_traitsIcESaIcEED1Ev
	jmp	.L356
.L672:
	movq	%rax, %rbx
.L356:
	leaq	9407(%rbp), %rax
	movq	%rax, %rcx
	call	_ZNSt15__new_allocatorIcED2Ev
	nop
	jmp	.L357
.L671:
	movq	%rax, %rbx
.L357:
	leaq	9312(%rbp), %rax
	movq	%rax, %rcx
	call	_ZNSt7__cxx1112basic_stringIcSt11char_traitsIcESaIcEED1Ev
	jmp	.L358
.L670:
	movq	%rax, %rbx
.L358:
	leaq	9359(%rbp), %rax
	movq	%rax, %rcx
	call	_ZNSt15__new_allocatorIcED2Ev
	nop
	movq	%rbx, %rax
	movq	%rax, %rcx
	call	_Unwind_Resume
.L683:
	movq	%rax, %rbx
	leaq	9728(%rbp), %rax
	movq	%rax, %rcx
	call	_ZNSt7__cxx1112basic_stringIcSt11char_traitsIcESaIcEED1Ev
	jmp	.L360
.L682:
	movq	%rax, %rbx
.L360:
	leaq	9775(%rbp), %rax
	movq	%rax, %rcx
	call	_ZNSt15__new_allocatorIcED2Ev
	nop
	jmp	.L361
.L681:
	movq	%rax, %rbx
.L361:
	leaq	9680(%rbp), %rax
	movq	%rax, %rcx
	call	_ZNSt7__cxx1112basic_stringIcSt11char_traitsIcESaIcEED1Ev
	jmp	.L362
.L680:
	movq	%rax, %rbx
.L362:
	leaq	9727(%rbp), %rax
	movq	%rax, %rcx
	call	_ZNSt15__new_allocatorIcED2Ev
	nop
	leaq	9456(%rbp), %rax
	movq	%rax, %rcx
	call	_ZN5ValueD1Ev
	leaq	9616(%rbp), %rax
	movq	%rax, %rcx
	call	_ZN5ValueD1Ev
	jmp	.L363
.L679:
	movq	%rax, %rbx
.L363:
	leaq	9568(%rbp), %rax
	movq	%rax, %rcx
	call	_ZNSt7__cxx1112basic_stringIcSt11char_traitsIcESaIcEED1Ev
	jmp	.L364
.L678:
	movq	%rax, %rbx
.L364:
	leaq	9615(%rbp), %rax
	movq	%rax, %rcx
	call	_ZNSt15__new_allocatorIcED2Ev
	nop
	jmp	.L365
.L677:
	movq	%rax, %rbx
.L365:
	leaq	9520(%rbp), %rax
	movq	%rax, %rcx
	call	_ZNSt7__cxx1112basic_stringIcSt11char_traitsIcESaIcEED1Ev
	jmp	.L366
.L676:
	movq	%rax, %rbx
.L366:
	leaq	9567(%rbp), %rax
	movq	%rax, %rcx
	call	_ZNSt15__new_allocatorIcED2Ev
	nop
	movq	%rbx, %rax
	movq	%rax, %rcx
	call	_Unwind_Resume
.L691:
	movq	%rax, %rbx
	leaq	10048(%rbp), %rax
	movq	%rax, %rcx
	call	_ZNSt7__cxx1112basic_stringIcSt11char_traitsIcESaIcEED1Ev
	jmp	.L368
.L690:
	movq	%rax, %rbx
.L368:
	leaq	10095(%rbp), %rax
	movq	%rax, %rcx
	call	_ZNSt15__new_allocatorIcED2Ev
	nop
	jmp	.L369
.L689:
	movq	%rax, %rbx
.L369:
	leaq	10000(%rbp), %rax
	movq	%rax, %rcx
	call	_ZNSt7__cxx1112basic_stringIcSt11char_traitsIcESaIcEED1Ev
	jmp	.L370
.L688:
	movq	%rax, %rbx
.L370:
	leaq	10047(%rbp), %rax
	movq	%rax, %rcx
	call	_ZNSt15__new_allocatorIcED2Ev
	nop
	leaq	9776(%rbp), %rax
	movq	%rax, %rcx
	call	_ZN5ValueD1Ev
	leaq	9936(%rbp), %rax
	movq	%rax, %rcx
	call	_ZN5ValueD1Ev
	jmp	.L371
.L687:
	movq	%rax, %rbx
.L371:
	leaq	9888(%rbp), %rax
	movq	%rax, %rcx
	call	_ZNSt7__cxx1112basic_stringIcSt11char_traitsIcESaIcEED1Ev
	jmp	.L372
.L686:
	movq	%rax, %rbx
.L372:
	leaq	9935(%rbp), %rax
	movq	%rax, %rcx
	call	_ZNSt15__new_allocatorIcED2Ev
	nop
	jmp	.L373
.L685:
	movq	%rax, %rbx
.L373:
	leaq	9840(%rbp), %rax
	movq	%rax, %rcx
	call	_ZNSt7__cxx1112basic_stringIcSt11char_traitsIcESaIcEED1Ev
	jmp	.L374
.L684:
	movq	%rax, %rbx
.L374:
	leaq	9887(%rbp), %rax
	movq	%rax, %rcx
	call	_ZNSt15__new_allocatorIcED2Ev
	nop
	movq	%rbx, %rax
	movq	%rax, %rcx
	call	_Unwind_Resume
.L694:
	movq	%rax, %rbx
	leaq	10096(%rbp), %rax
	movq	%rax, %rcx
	call	_ZN5ValueD1Ev
	jmp	.L376
.L693:
	movq	%rax, %rbx
.L376:
	leaq	10160(%rbp), %rax
	movq	%rax, %rcx
	call	_ZNSt7__cxx1112basic_stringIcSt11char_traitsIcESaIcEED1Ev
	jmp	.L377
.L692:
	movq	%rax, %rbx
.L377:
	leaq	10207(%rbp), %rax
	movq	%rax, %rcx
	call	_ZNSt15__new_allocatorIcED2Ev
	nop
	movq	%rbx, %rax
	movq	%rax, %rcx
	call	_Unwind_Resume
.L698:
	movq	%rax, %rbx
	leaq	10256(%rbp), %rax
	movq	%rax, %rcx
	call	_ZNSt7__cxx1112basic_stringIcSt11char_traitsIcESaIcEED1Ev
	jmp	.L379
.L697:
	movq	%rax, %rbx
.L379:
	leaq	10303(%rbp), %rax
	movq	%rax, %rcx
	call	_ZNSt15__new_allocatorIcED2Ev
	nop
	jmp	.L380
.L696:
	movq	%rax, %rbx
.L380:
	leaq	10208(%rbp), %rax
	movq	%rax, %rcx
	call	_ZNSt7__cxx1112basic_stringIcSt11char_traitsIcESaIcEED1Ev
	jmp	.L381
.L695:
	movq	%rax, %rbx
.L381:
	leaq	10255(%rbp), %rax
	movq	%rax, %rcx
	call	_ZNSt15__new_allocatorIcED2Ev
	nop
	movq	%rbx, %rax
	movq	%rax, %rcx
	call	_Unwind_Resume
.L704:
	movq	%rax, %rbx
	leaq	10400(%rbp), %rax
	movq	%rax, %rcx
	call	_ZNSt7__cxx1112basic_stringIcSt11char_traitsIcESaIcEED1Ev
	jmp	.L383
.L703:
	movq	%rax, %rbx
.L383:
	leaq	10447(%rbp), %rax
	movq	%rax, %rcx
	call	_ZNSt15__new_allocatorIcED2Ev
	nop
	jmp	.L384
.L702:
	movq	%rax, %rbx
.L384:
	leaq	10352(%rbp), %rax
	movq	%rax, %rcx
	call	_ZNSt7__cxx1112basic_stringIcSt11char_traitsIcESaIcEED1Ev
	jmp	.L385
.L701:
	movq	%rax, %rbx
.L385:
	leaq	10399(%rbp), %rax
	movq	%rax, %rcx
	call	_ZNSt15__new_allocatorIcED2Ev
	nop
	jmp	.L386
.L700:
	movq	%rax, %rbx
.L386:
	leaq	10304(%rbp), %rax
	movq	%rax, %rcx
	call	_ZNSt7__cxx1112basic_stringIcSt11char_traitsIcESaIcEED1Ev
	jmp	.L387
.L699:
	movq	%rax, %rbx
.L387:
	leaq	10351(%rbp), %rax
	movq	%rax, %rcx
	call	_ZNSt15__new_allocatorIcED2Ev
	nop
	movq	%rbx, %rax
	movq	%rax, %rcx
	call	_Unwind_Resume
.L712:
	movq	%rax, %rbx
	leaq	10720(%rbp), %rax
	movq	%rax, %rcx
	call	_ZNSt7__cxx1112basic_stringIcSt11char_traitsIcESaIcEED1Ev
	jmp	.L389
.L711:
	movq	%rax, %rbx
.L389:
	leaq	10767(%rbp), %rax
	movq	%rax, %rcx
	call	_ZNSt15__new_allocatorIcED2Ev
	nop
	jmp	.L390
.L710:
	movq	%rax, %rbx
.L390:
	leaq	10672(%rbp), %rax
	movq	%rax, %rcx
	call	_ZNSt7__cxx1112basic_stringIcSt11char_traitsIcESaIcEED1Ev
	jmp	.L391
.L709:
	movq	%rax, %rbx
.L391:
	leaq	10719(%rbp), %rax
	movq	%rax, %rcx
	call	_ZNSt15__new_allocatorIcED2Ev
	nop
	leaq	10448(%rbp), %rax
	movq	%rax, %rcx
	call	_ZN5ValueD1Ev
	leaq	10608(%rbp), %rax
	movq	%rax, %rcx
	call	_ZN5ValueD1Ev
	jmp	.L392
.L708:
	movq	%rax, %rbx
.L392:
	leaq	10560(%rbp), %rax
	movq	%rax, %rcx
	call	_ZNSt7__cxx1112basic_stringIcSt11char_traitsIcESaIcEED1Ev
	jmp	.L393
.L707:
	movq	%rax, %rbx
.L393:
	leaq	10607(%rbp), %rax
	movq	%rax, %rcx
	call	_ZNSt15__new_allocatorIcED2Ev
	nop
	jmp	.L394
.L706:
	movq	%rax, %rbx
.L394:
	leaq	10512(%rbp), %rax
	movq	%rax, %rcx
	call	_ZNSt7__cxx1112basic_stringIcSt11char_traitsIcESaIcEED1Ev
	jmp	.L395
.L705:
	movq	%rax, %rbx
.L395:
	leaq	10559(%rbp), %rax
	movq	%rax, %rcx
	call	_ZNSt15__new_allocatorIcED2Ev
	nop
	movq	%rbx, %rax
	movq	%rax, %rcx
	call	_Unwind_Resume
.L720:
	movq	%rax, %rbx
	leaq	11040(%rbp), %rax
	movq	%rax, %rcx
	call	_ZNSt7__cxx1112basic_stringIcSt11char_traitsIcESaIcEED1Ev
	jmp	.L397
.L719:
	movq	%rax, %rbx
.L397:
	leaq	11087(%rbp), %rax
	movq	%rax, %rcx
	call	_ZNSt15__new_allocatorIcED2Ev
	nop
	jmp	.L398
.L718:
	movq	%rax, %rbx
.L398:
	leaq	10992(%rbp), %rax
	movq	%rax, %rcx
	call	_ZNSt7__cxx1112basic_stringIcSt11char_traitsIcESaIcEED1Ev
	jmp	.L399
.L717:
	movq	%rax, %rbx
.L399:
	leaq	11039(%rbp), %rax
	movq	%rax, %rcx
	call	_ZNSt15__new_allocatorIcED2Ev
	nop
	leaq	10768(%rbp), %rax
	movq	%rax, %rcx
	call	_ZN5ValueD1Ev
	leaq	10928(%rbp), %rax
	movq	%rax, %rcx
	call	_ZN5ValueD1Ev
	jmp	.L400
.L716:
	movq	%rax, %rbx
.L400:
	leaq	10880(%rbp), %rax
	movq	%rax, %rcx
	call	_ZNSt7__cxx1112basic_stringIcSt11char_traitsIcESaIcEED1Ev
	jmp	.L401
.L715:
	movq	%rax, %rbx
.L401:
	leaq	10927(%rbp), %rax
	movq	%rax, %rcx
	call	_ZNSt15__new_allocatorIcED2Ev
	nop
	jmp	.L402
.L714:
	movq	%rax, %rbx
.L402:
	leaq	10832(%rbp), %rax
	movq	%rax, %rcx
	call	_ZNSt7__cxx1112basic_stringIcSt11char_traitsIcESaIcEED1Ev
	jmp	.L403
.L713:
	movq	%rax, %rbx
.L403:
	leaq	10879(%rbp), %rax
	movq	%rax, %rcx
	call	_ZNSt15__new_allocatorIcED2Ev
	nop
	movq	%rbx, %rax
	movq	%rax, %rcx
	call	_Unwind_Resume
.L723:
	movq	%rax, %rbx
	leaq	11088(%rbp), %rax
	movq	%rax, %rcx
	call	_ZN5ValueD1Ev
	jmp	.L405
.L722:
	movq	%rax, %rbx
.L405:
	leaq	11152(%rbp), %rax
	movq	%rax, %rcx
	call	_ZNSt7__cxx1112basic_stringIcSt11char_traitsIcESaIcEED1Ev
	jmp	.L406
.L721:
	movq	%rax, %rbx
.L406:
	leaq	11199(%rbp), %rax
	movq	%rax, %rcx
	call	_ZNSt15__new_allocatorIcED2Ev
	nop
	movq	%rbx, %rax
	movq	%rax, %rcx
	call	_Unwind_Resume
.L727:
	movq	%rax, %rbx
	leaq	11248(%rbp), %rax
	movq	%rax, %rcx
	call	_ZNSt7__cxx1112basic_stringIcSt11char_traitsIcESaIcEED1Ev
	jmp	.L408
.L726:
	movq	%rax, %rbx
.L408:
	leaq	11295(%rbp), %rax
	movq	%rax, %rcx
	call	_ZNSt15__new_allocatorIcED2Ev
	nop
	jmp	.L409
.L725:
	movq	%rax, %rbx
.L409:
	leaq	11200(%rbp), %rax
	movq	%rax, %rcx
	call	_ZNSt7__cxx1112basic_stringIcSt11char_traitsIcESaIcEED1Ev
	jmp	.L410
.L724:
	movq	%rax, %rbx
.L410:
	leaq	11247(%rbp), %rax
	movq	%rax, %rcx
	call	_ZNSt15__new_allocatorIcED2Ev
	nop
	movq	%rbx, %rax
	movq	%rax, %rcx
	call	_Unwind_Resume
.L731:
	movq	%rax, %rbx
	leaq	11344(%rbp), %rax
	movq	%rax, %rcx
	call	_ZNSt7__cxx1112basic_stringIcSt11char_traitsIcESaIcEED1Ev
	jmp	.L412
.L730:
	movq	%rax, %rbx
.L412:
	leaq	11391(%rbp), %rax
	movq	%rax, %rcx
	call	_ZNSt15__new_allocatorIcED2Ev
	nop
	jmp	.L413
.L729:
	movq	%rax, %rbx
.L413:
	leaq	11296(%rbp), %rax
	movq	%rax, %rcx
	call	_ZNSt7__cxx1112basic_stringIcSt11char_traitsIcESaIcEED1Ev
	jmp	.L414
.L728:
	movq	%rax, %rbx
.L414:
	leaq	11343(%rbp), %rax
	movq	%rax, %rcx
	call	_ZNSt15__new_allocatorIcED2Ev
	nop
	movq	%rbx, %rax
	movq	%rax, %rcx
	call	_Unwind_Resume
.L734:
	movq	%rax, %rbx
	leaq	11456(%rbp), %rax
	movq	%rax, %rcx
	call	_ZN5ValueD1Ev
	jmp	.L416
.L733:
	movq	%rax, %rbx
.L416:
	leaq	11520(%rbp), %rax
	movq	%rax, %rcx
	call	_ZNSt7__cxx1112basic_stringIcSt11char_traitsIcESaIcEED1Ev
	jmp	.L417
.L732:
	movq	%rax, %rbx
.L417:
	leaq	11567(%rbp), %rax
	movq	%rax, %rcx
	call	_ZNSt15__new_allocatorIcED2Ev
	nop
	movq	%rbx, %rax
	movq	%rax, %rcx
	call	_Unwind_Resume
.L738:
	movq	%rax, %rbx
	leaq	11616(%rbp), %rax
	movq	%rax, %rcx
	call	_ZNSt7__cxx1112basic_stringIcSt11char_traitsIcESaIcEED1Ev
	jmp	.L419
.L737:
	movq	%rax, %rbx
.L419:
	leaq	11663(%rbp), %rax
	movq	%rax, %rcx
	call	_ZNSt15__new_allocatorIcED2Ev
	nop
	jmp	.L420
.L736:
	movq	%rax, %rbx
.L420:
	leaq	11568(%rbp), %rax
	movq	%rax, %rcx
	call	_ZNSt7__cxx1112basic_stringIcSt11char_traitsIcESaIcEED1Ev
	jmp	.L421
.L735:
	movq	%rax, %rbx
.L421:
	leaq	11615(%rbp), %rax
	movq	%rax, %rcx
	call	_ZNSt15__new_allocatorIcED2Ev
	nop
	movq	%rbx, %rax
	movq	%rax, %rcx
	call	_Unwind_Resume
.L741:
	movq	%rax, %rbx
	leaq	11664(%rbp), %rax
	movq	%rax, %rcx
	call	_ZN5ValueD1Ev
	jmp	.L423
.L740:
	movq	%rax, %rbx
.L423:
	leaq	11728(%rbp), %rax
	movq	%rax, %rcx
	call	_ZNSt7__cxx1112basic_stringIcSt11char_traitsIcESaIcEED1Ev
	jmp	.L424
.L739:
	movq	%rax, %rbx
.L424:
	leaq	11775(%rbp), %rax
	movq	%rax, %rcx
	call	_ZNSt15__new_allocatorIcED2Ev
	nop
	movq	%rbx, %rax
	movq	%rax, %rcx
	call	_Unwind_Resume
.LEHE340:
.L742:
	movups	12944(%rbp), %xmm6
	addq	$13096, %rsp
	popq	%rbx
	popq	%rsi
	popq	%rdi
	popq	%rbp
	ret
	.seh_handler	__gxx_personality_seh0, @unwind, @except
	.seh_handlerdata
.LLSDA3054:
	.byte	0xff
	.byte	0xff
	.byte	0x1
	.uleb128 .LLSDACSE3054-.LLSDACSB3054
.LLSDACSB3054:
	.uleb128 .LEHB2-.LFB3054
	.uleb128 .LEHE2-.LEHB2
	.uleb128 .L425-.LFB3054
	.uleb128 0
	.uleb128 .LEHB3-.LFB3054
	.uleb128 .LEHE3-.LEHB3
	.uleb128 .L426-.LFB3054
	.uleb128 0
	.uleb128 .LEHB4-.LFB3054
	.uleb128 .LEHE4-.LEHB4
	.uleb128 .L427-.LFB3054
	.uleb128 0
	.uleb128 .LEHB5-.LFB3054
	.uleb128 .LEHE5-.LEHB5
	.uleb128 0
	.uleb128 0
	.uleb128 .LEHB6-.LFB3054
	.uleb128 .LEHE6-.LEHB6
	.uleb128 .L428-.LFB3054
	.uleb128 0
	.uleb128 .LEHB7-.LFB3054
	.uleb128 .LEHE7-.LEHB7
	.uleb128 .L429-.LFB3054
	.uleb128 0
	.uleb128 .LEHB8-.LFB3054
	.uleb128 .LEHE8-.LEHB8
	.uleb128 .L430-.LFB3054
	.uleb128 0
	.uleb128 .LEHB9-.LFB3054
	.uleb128 .LEHE9-.LEHB9
	.uleb128 0
	.uleb128 0
	.uleb128 .LEHB10-.LFB3054
	.uleb128 .LEHE10-.LEHB10
	.uleb128 .L431-.LFB3054
	.uleb128 0
	.uleb128 .LEHB11-.LFB3054
	.uleb128 .LEHE11-.LEHB11
	.uleb128 .L432-.LFB3054
	.uleb128 0
	.uleb128 .LEHB12-.LFB3054
	.uleb128 .LEHE12-.LEHB12
	.uleb128 .L433-.LFB3054
	.uleb128 0
	.uleb128 .LEHB13-.LFB3054
	.uleb128 .LEHE13-.LEHB13
	.uleb128 0
	.uleb128 0
	.uleb128 .LEHB14-.LFB3054
	.uleb128 .LEHE14-.LEHB14
	.uleb128 .L434-.LFB3054
	.uleb128 0
	.uleb128 .LEHB15-.LFB3054
	.uleb128 .LEHE15-.LEHB15
	.uleb128 .L435-.LFB3054
	.uleb128 0
	.uleb128 .LEHB16-.LFB3054
	.uleb128 .LEHE16-.LEHB16
	.uleb128 .L436-.LFB3054
	.uleb128 0
	.uleb128 .LEHB17-.LFB3054
	.uleb128 .LEHE17-.LEHB17
	.uleb128 .L437-.LFB3054
	.uleb128 0
	.uleb128 .LEHB18-.LFB3054
	.uleb128 .LEHE18-.LEHB18
	.uleb128 .L438-.LFB3054
	.uleb128 0
	.uleb128 .LEHB19-.LFB3054
	.uleb128 .LEHE19-.LEHB19
	.uleb128 .L439-.LFB3054
	.uleb128 0
	.uleb128 .LEHB20-.LFB3054
	.uleb128 .LEHE20-.LEHB20
	.uleb128 .L440-.LFB3054
	.uleb128 0
	.uleb128 .LEHB21-.LFB3054
	.uleb128 .LEHE21-.LEHB21
	.uleb128 .L441-.LFB3054
	.uleb128 0
	.uleb128 .LEHB22-.LFB3054
	.uleb128 .LEHE22-.LEHB22
	.uleb128 .L442-.LFB3054
	.uleb128 0
	.uleb128 .LEHB23-.LFB3054
	.uleb128 .LEHE23-.LEHB23
	.uleb128 .L443-.LFB3054
	.uleb128 0
	.uleb128 .LEHB24-.LFB3054
	.uleb128 .LEHE24-.LEHB24
	.uleb128 .L444-.LFB3054
	.uleb128 0
	.uleb128 .LEHB25-.LFB3054
	.uleb128 .LEHE25-.LEHB25
	.uleb128 .L445-.LFB3054
	.uleb128 0
	.uleb128 .LEHB26-.LFB3054
	.uleb128 .LEHE26-.LEHB26
	.uleb128 .L446-.LFB3054
	.uleb128 0
	.uleb128 .LEHB27-.LFB3054
	.uleb128 .LEHE27-.LEHB27
	.uleb128 .L447-.LFB3054
	.uleb128 0
	.uleb128 .LEHB28-.LFB3054
	.uleb128 .LEHE28-.LEHB28
	.uleb128 .L448-.LFB3054
	.uleb128 0
	.uleb128 .LEHB29-.LFB3054
	.uleb128 .LEHE29-.LEHB29
	.uleb128 .L449-.LFB3054
	.uleb128 0
	.uleb128 .LEHB30-.LFB3054
	.uleb128 .LEHE30-.LEHB30
	.uleb128 .L450-.LFB3054
	.uleb128 0
	.uleb128 .LEHB31-.LFB3054
	.uleb128 .LEHE31-.LEHB31
	.uleb128 .L451-.LFB3054
	.uleb128 0
	.uleb128 .LEHB32-.LFB3054
	.uleb128 .LEHE32-.LEHB32
	.uleb128 0
	.uleb128 0
	.uleb128 .LEHB33-.LFB3054
	.uleb128 .LEHE33-.LEHB33
	.uleb128 .L452-.LFB3054
	.uleb128 0
	.uleb128 .LEHB34-.LFB3054
	.uleb128 .LEHE34-.LEHB34
	.uleb128 .L453-.LFB3054
	.uleb128 0
	.uleb128 .LEHB35-.LFB3054
	.uleb128 .LEHE35-.LEHB35
	.uleb128 .L454-.LFB3054
	.uleb128 0
	.uleb128 .LEHB36-.LFB3054
	.uleb128 .LEHE36-.LEHB36
	.uleb128 .L455-.LFB3054
	.uleb128 0
	.uleb128 .LEHB37-.LFB3054
	.uleb128 .LEHE37-.LEHB37
	.uleb128 .L456-.LFB3054
	.uleb128 0
	.uleb128 .LEHB38-.LFB3054
	.uleb128 .LEHE38-.LEHB38
	.uleb128 .L457-.LFB3054
	.uleb128 0
	.uleb128 .LEHB39-.LFB3054
	.uleb128 .LEHE39-.LEHB39
	.uleb128 .L458-.LFB3054
	.uleb128 0
	.uleb128 .LEHB40-.LFB3054
	.uleb128 .LEHE40-.LEHB40
	.uleb128 .L459-.LFB3054
	.uleb128 0
	.uleb128 .LEHB41-.LFB3054
	.uleb128 .LEHE41-.LEHB41
	.uleb128 .L460-.LFB3054
	.uleb128 0
	.uleb128 .LEHB42-.LFB3054
	.uleb128 .LEHE42-.LEHB42
	.uleb128 .L461-.LFB3054
	.uleb128 0
	.uleb128 .LEHB43-.LFB3054
	.uleb128 .LEHE43-.LEHB43
	.uleb128 .L462-.LFB3054
	.uleb128 0
	.uleb128 .LEHB44-.LFB3054
	.uleb128 .LEHE44-.LEHB44
	.uleb128 .L463-.LFB3054
	.uleb128 0
	.uleb128 .LEHB45-.LFB3054
	.uleb128 .LEHE45-.LEHB45
	.uleb128 .L464-.LFB3054
	.uleb128 0
	.uleb128 .LEHB46-.LFB3054
	.uleb128 .LEHE46-.LEHB46
	.uleb128 .L465-.LFB3054
	.uleb128 0
	.uleb128 .LEHB47-.LFB3054
	.uleb128 .LEHE47-.LEHB47
	.uleb128 .L466-.LFB3054
	.uleb128 0
	.uleb128 .LEHB48-.LFB3054
	.uleb128 .LEHE48-.LEHB48
	.uleb128 .L467-.LFB3054
	.uleb128 0
	.uleb128 .LEHB49-.LFB3054
	.uleb128 .LEHE49-.LEHB49
	.uleb128 .L468-.LFB3054
	.uleb128 0
	.uleb128 .LEHB50-.LFB3054
	.uleb128 .LEHE50-.LEHB50
	.uleb128 .L469-.LFB3054
	.uleb128 0
	.uleb128 .LEHB51-.LFB3054
	.uleb128 .LEHE51-.LEHB51
	.uleb128 .L470-.LFB3054
	.uleb128 0
	.uleb128 .LEHB52-.LFB3054
	.uleb128 .LEHE52-.LEHB52
	.uleb128 .L471-.LFB3054
	.uleb128 0
	.uleb128 .LEHB53-.LFB3054
	.uleb128 .LEHE53-.LEHB53
	.uleb128 .L472-.LFB3054
	.uleb128 0
	.uleb128 .LEHB54-.LFB3054
	.uleb128 .LEHE54-.LEHB54
	.uleb128 .L473-.LFB3054
	.uleb128 0
	.uleb128 .LEHB55-.LFB3054
	.uleb128 .LEHE55-.LEHB55
	.uleb128 .L474-.LFB3054
	.uleb128 0
	.uleb128 .LEHB56-.LFB3054
	.uleb128 .LEHE56-.LEHB56
	.uleb128 .L475-.LFB3054
	.uleb128 0
	.uleb128 .LEHB57-.LFB3054
	.uleb128 .LEHE57-.LEHB57
	.uleb128 .L476-.LFB3054
	.uleb128 0
	.uleb128 .LEHB58-.LFB3054
	.uleb128 .LEHE58-.LEHB58
	.uleb128 .L477-.LFB3054
	.uleb128 0
	.uleb128 .LEHB59-.LFB3054
	.uleb128 .LEHE59-.LEHB59
	.uleb128 .L478-.LFB3054
	.uleb128 0
	.uleb128 .LEHB60-.LFB3054
	.uleb128 .LEHE60-.LEHB60
	.uleb128 .L479-.LFB3054
	.uleb128 0
	.uleb128 .LEHB61-.LFB3054
	.uleb128 .LEHE61-.LEHB61
	.uleb128 .L480-.LFB3054
	.uleb128 0
	.uleb128 .LEHB62-.LFB3054
	.uleb128 .LEHE62-.LEHB62
	.uleb128 .L481-.LFB3054
	.uleb128 0
	.uleb128 .LEHB63-.LFB3054
	.uleb128 .LEHE63-.LEHB63
	.uleb128 .L482-.LFB3054
	.uleb128 0
	.uleb128 .LEHB64-.LFB3054
	.uleb128 .LEHE64-.LEHB64
	.uleb128 .L483-.LFB3054
	.uleb128 0
	.uleb128 .LEHB65-.LFB3054
	.uleb128 .LEHE65-.LEHB65
	.uleb128 .L484-.LFB3054
	.uleb128 0
	.uleb128 .LEHB66-.LFB3054
	.uleb128 .LEHE66-.LEHB66
	.uleb128 .L485-.LFB3054
	.uleb128 0
	.uleb128 .LEHB67-.LFB3054
	.uleb128 .LEHE67-.LEHB67
	.uleb128 .L486-.LFB3054
	.uleb128 0
	.uleb128 .LEHB68-.LFB3054
	.uleb128 .LEHE68-.LEHB68
	.uleb128 .L487-.LFB3054
	.uleb128 0
	.uleb128 .LEHB69-.LFB3054
	.uleb128 .LEHE69-.LEHB69
	.uleb128 .L488-.LFB3054
	.uleb128 0
	.uleb128 .LEHB70-.LFB3054
	.uleb128 .LEHE70-.LEHB70
	.uleb128 .L489-.LFB3054
	.uleb128 0
	.uleb128 .LEHB71-.LFB3054
	.uleb128 .LEHE71-.LEHB71
	.uleb128 .L490-.LFB3054
	.uleb128 0
	.uleb128 .LEHB72-.LFB3054
	.uleb128 .LEHE72-.LEHB72
	.uleb128 .L491-.LFB3054
	.uleb128 0
	.uleb128 .LEHB73-.LFB3054
	.uleb128 .LEHE73-.LEHB73
	.uleb128 .L492-.LFB3054
	.uleb128 0
	.uleb128 .LEHB74-.LFB3054
	.uleb128 .LEHE74-.LEHB74
	.uleb128 .L493-.LFB3054
	.uleb128 0
	.uleb128 .LEHB75-.LFB3054
	.uleb128 .LEHE75-.LEHB75
	.uleb128 .L494-.LFB3054
	.uleb128 0
	.uleb128 .LEHB76-.LFB3054
	.uleb128 .LEHE76-.LEHB76
	.uleb128 .L495-.LFB3054
	.uleb128 0
	.uleb128 .LEHB77-.LFB3054
	.uleb128 .LEHE77-.LEHB77
	.uleb128 .L496-.LFB3054
	.uleb128 0
	.uleb128 .LEHB78-.LFB3054
	.uleb128 .LEHE78-.LEHB78
	.uleb128 .L497-.LFB3054
	.uleb128 0
	.uleb128 .LEHB79-.LFB3054
	.uleb128 .LEHE79-.LEHB79
	.uleb128 .L498-.LFB3054
	.uleb128 0
	.uleb128 .LEHB80-.LFB3054
	.uleb128 .LEHE80-.LEHB80
	.uleb128 0
	.uleb128 0
	.uleb128 .LEHB81-.LFB3054
	.uleb128 .LEHE81-.LEHB81
	.uleb128 .L499-.LFB3054
	.uleb128 0
	.uleb128 .LEHB82-.LFB3054
	.uleb128 .LEHE82-.LEHB82
	.uleb128 .L500-.LFB3054
	.uleb128 0
	.uleb128 .LEHB83-.LFB3054
	.uleb128 .LEHE83-.LEHB83
	.uleb128 .L501-.LFB3054
	.uleb128 0
	.uleb128 .LEHB84-.LFB3054
	.uleb128 .LEHE84-.LEHB84
	.uleb128 0
	.uleb128 0
	.uleb128 .LEHB85-.LFB3054
	.uleb128 .LEHE85-.LEHB85
	.uleb128 .L502-.LFB3054
	.uleb128 0
	.uleb128 .LEHB86-.LFB3054
	.uleb128 .LEHE86-.LEHB86
	.uleb128 .L503-.LFB3054
	.uleb128 0
	.uleb128 .LEHB87-.LFB3054
	.uleb128 .LEHE87-.LEHB87
	.uleb128 .L504-.LFB3054
	.uleb128 0
	.uleb128 .LEHB88-.LFB3054
	.uleb128 .LEHE88-.LEHB88
	.uleb128 0
	.uleb128 0
	.uleb128 .LEHB89-.LFB3054
	.uleb128 .LEHE89-.LEHB89
	.uleb128 .L505-.LFB3054
	.uleb128 0
	.uleb128 .LEHB90-.LFB3054
	.uleb128 .LEHE90-.LEHB90
	.uleb128 .L506-.LFB3054
	.uleb128 0
	.uleb128 .LEHB91-.LFB3054
	.uleb128 .LEHE91-.LEHB91
	.uleb128 .L507-.LFB3054
	.uleb128 0
	.uleb128 .LEHB92-.LFB3054
	.uleb128 .LEHE92-.LEHB92
	.uleb128 0
	.uleb128 0
	.uleb128 .LEHB93-.LFB3054
	.uleb128 .LEHE93-.LEHB93
	.uleb128 .L508-.LFB3054
	.uleb128 0
	.uleb128 .LEHB94-.LFB3054
	.uleb128 .LEHE94-.LEHB94
	.uleb128 .L509-.LFB3054
	.uleb128 0
	.uleb128 .LEHB95-.LFB3054
	.uleb128 .LEHE95-.LEHB95
	.uleb128 .L510-.LFB3054
	.uleb128 0
	.uleb128 .LEHB96-.LFB3054
	.uleb128 .LEHE96-.LEHB96
	.uleb128 0
	.uleb128 0
	.uleb128 .LEHB97-.LFB3054
	.uleb128 .LEHE97-.LEHB97
	.uleb128 .L511-.LFB3054
	.uleb128 0
	.uleb128 .LEHB98-.LFB3054
	.uleb128 .LEHE98-.LEHB98
	.uleb128 .L512-.LFB3054
	.uleb128 0
	.uleb128 .LEHB99-.LFB3054
	.uleb128 .LEHE99-.LEHB99
	.uleb128 .L513-.LFB3054
	.uleb128 0
	.uleb128 .LEHB100-.LFB3054
	.uleb128 .LEHE100-.LEHB100
	.uleb128 .L514-.LFB3054
	.uleb128 0
	.uleb128 .LEHB101-.LFB3054
	.uleb128 .LEHE101-.LEHB101
	.uleb128 .L515-.LFB3054
	.uleb128 0
	.uleb128 .LEHB102-.LFB3054
	.uleb128 .LEHE102-.LEHB102
	.uleb128 .L516-.LFB3054
	.uleb128 0
	.uleb128 .LEHB103-.LFB3054
	.uleb128 .LEHE103-.LEHB103
	.uleb128 .L517-.LFB3054
	.uleb128 0
	.uleb128 .LEHB104-.LFB3054
	.uleb128 .LEHE104-.LEHB104
	.uleb128 .L518-.LFB3054
	.uleb128 0
	.uleb128 .LEHB105-.LFB3054
	.uleb128 .LEHE105-.LEHB105
	.uleb128 .L519-.LFB3054
	.uleb128 0
	.uleb128 .LEHB106-.LFB3054
	.uleb128 .LEHE106-.LEHB106
	.uleb128 .L520-.LFB3054
	.uleb128 0
	.uleb128 .LEHB107-.LFB3054
	.uleb128 .LEHE107-.LEHB107
	.uleb128 .L521-.LFB3054
	.uleb128 0
	.uleb128 .LEHB108-.LFB3054
	.uleb128 .LEHE108-.LEHB108
	.uleb128 .L522-.LFB3054
	.uleb128 0
	.uleb128 .LEHB109-.LFB3054
	.uleb128 .LEHE109-.LEHB109
	.uleb128 .L523-.LFB3054
	.uleb128 0
	.uleb128 .LEHB110-.LFB3054
	.uleb128 .LEHE110-.LEHB110
	.uleb128 .L524-.LFB3054
	.uleb128 0
	.uleb128 .LEHB111-.LFB3054
	.uleb128 .LEHE111-.LEHB111
	.uleb128 .L525-.LFB3054
	.uleb128 0
	.uleb128 .LEHB112-.LFB3054
	.uleb128 .LEHE112-.LEHB112
	.uleb128 .L526-.LFB3054
	.uleb128 0
	.uleb128 .LEHB113-.LFB3054
	.uleb128 .LEHE113-.LEHB113
	.uleb128 .L527-.LFB3054
	.uleb128 0
	.uleb128 .LEHB114-.LFB3054
	.uleb128 .LEHE114-.LEHB114
	.uleb128 .L528-.LFB3054
	.uleb128 0
	.uleb128 .LEHB115-.LFB3054
	.uleb128 .LEHE115-.LEHB115
	.uleb128 .L529-.LFB3054
	.uleb128 0
	.uleb128 .LEHB116-.LFB3054
	.uleb128 .LEHE116-.LEHB116
	.uleb128 .L530-.LFB3054
	.uleb128 0
	.uleb128 .LEHB117-.LFB3054
	.uleb128 .LEHE117-.LEHB117
	.uleb128 .L531-.LFB3054
	.uleb128 0
	.uleb128 .LEHB118-.LFB3054
	.uleb128 .LEHE118-.LEHB118
	.uleb128 .L532-.LFB3054
	.uleb128 0
	.uleb128 .LEHB119-.LFB3054
	.uleb128 .LEHE119-.LEHB119
	.uleb128 .L533-.LFB3054
	.uleb128 0
	.uleb128 .LEHB120-.LFB3054
	.uleb128 .LEHE120-.LEHB120
	.uleb128 .L534-.LFB3054
	.uleb128 0
	.uleb128 .LEHB121-.LFB3054
	.uleb128 .LEHE121-.LEHB121
	.uleb128 .L535-.LFB3054
	.uleb128 0
	.uleb128 .LEHB122-.LFB3054
	.uleb128 .LEHE122-.LEHB122
	.uleb128 .L536-.LFB3054
	.uleb128 0
	.uleb128 .LEHB123-.LFB3054
	.uleb128 .LEHE123-.LEHB123
	.uleb128 .L537-.LFB3054
	.uleb128 0
	.uleb128 .LEHB124-.LFB3054
	.uleb128 .LEHE124-.LEHB124
	.uleb128 .L538-.LFB3054
	.uleb128 0
	.uleb128 .LEHB125-.LFB3054
	.uleb128 .LEHE125-.LEHB125
	.uleb128 .L539-.LFB3054
	.uleb128 0
	.uleb128 .LEHB126-.LFB3054
	.uleb128 .LEHE126-.LEHB126
	.uleb128 .L540-.LFB3054
	.uleb128 0
	.uleb128 .LEHB127-.LFB3054
	.uleb128 .LEHE127-.LEHB127
	.uleb128 .L541-.LFB3054
	.uleb128 0
	.uleb128 .LEHB128-.LFB3054
	.uleb128 .LEHE128-.LEHB128
	.uleb128 .L542-.LFB3054
	.uleb128 0
	.uleb128 .LEHB129-.LFB3054
	.uleb128 .LEHE129-.LEHB129
	.uleb128 .L543-.LFB3054
	.uleb128 0
	.uleb128 .LEHB130-.LFB3054
	.uleb128 .LEHE130-.LEHB130
	.uleb128 .L544-.LFB3054
	.uleb128 0
	.uleb128 .LEHB131-.LFB3054
	.uleb128 .LEHE131-.LEHB131
	.uleb128 .L545-.LFB3054
	.uleb128 0
	.uleb128 .LEHB132-.LFB3054
	.uleb128 .LEHE132-.LEHB132
	.uleb128 .L546-.LFB3054
	.uleb128 0
	.uleb128 .LEHB133-.LFB3054
	.uleb128 .LEHE133-.LEHB133
	.uleb128 .L547-.LFB3054
	.uleb128 0
	.uleb128 .LEHB134-.LFB3054
	.uleb128 .LEHE134-.LEHB134
	.uleb128 .L548-.LFB3054
	.uleb128 0
	.uleb128 .LEHB135-.LFB3054
	.uleb128 .LEHE135-.LEHB135
	.uleb128 .L549-.LFB3054
	.uleb128 0
	.uleb128 .LEHB136-.LFB3054
	.uleb128 .LEHE136-.LEHB136
	.uleb128 .L550-.LFB3054
	.uleb128 0
	.uleb128 .LEHB137-.LFB3054
	.uleb128 .LEHE137-.LEHB137
	.uleb128 .L551-.LFB3054
	.uleb128 0
	.uleb128 .LEHB138-.LFB3054
	.uleb128 .LEHE138-.LEHB138
	.uleb128 .L552-.LFB3054
	.uleb128 0
	.uleb128 .LEHB139-.LFB3054
	.uleb128 .LEHE139-.LEHB139
	.uleb128 .L553-.LFB3054
	.uleb128 0
	.uleb128 .LEHB140-.LFB3054
	.uleb128 .LEHE140-.LEHB140
	.uleb128 .L554-.LFB3054
	.uleb128 0
	.uleb128 .LEHB141-.LFB3054
	.uleb128 .LEHE141-.LEHB141
	.uleb128 .L555-.LFB3054
	.uleb128 0
	.uleb128 .LEHB142-.LFB3054
	.uleb128 .LEHE142-.LEHB142
	.uleb128 .L556-.LFB3054
	.uleb128 0
	.uleb128 .LEHB143-.LFB3054
	.uleb128 .LEHE143-.LEHB143
	.uleb128 .L557-.LFB3054
	.uleb128 0
	.uleb128 .LEHB144-.LFB3054
	.uleb128 .LEHE144-.LEHB144
	.uleb128 .L558-.LFB3054
	.uleb128 0
	.uleb128 .LEHB145-.LFB3054
	.uleb128 .LEHE145-.LEHB145
	.uleb128 .L559-.LFB3054
	.uleb128 0
	.uleb128 .LEHB146-.LFB3054
	.uleb128 .LEHE146-.LEHB146
	.uleb128 .L560-.LFB3054
	.uleb128 0
	.uleb128 .LEHB147-.LFB3054
	.uleb128 .LEHE147-.LEHB147
	.uleb128 .L561-.LFB3054
	.uleb128 0
	.uleb128 .LEHB148-.LFB3054
	.uleb128 .LEHE148-.LEHB148
	.uleb128 .L562-.LFB3054
	.uleb128 0
	.uleb128 .LEHB149-.LFB3054
	.uleb128 .LEHE149-.LEHB149
	.uleb128 .L563-.LFB3054
	.uleb128 0
	.uleb128 .LEHB150-.LFB3054
	.uleb128 .LEHE150-.LEHB150
	.uleb128 .L564-.LFB3054
	.uleb128 0
	.uleb128 .LEHB151-.LFB3054
	.uleb128 .LEHE151-.LEHB151
	.uleb128 .L565-.LFB3054
	.uleb128 0
	.uleb128 .LEHB152-.LFB3054
	.uleb128 .LEHE152-.LEHB152
	.uleb128 .L566-.LFB3054
	.uleb128 0
	.uleb128 .LEHB153-.LFB3054
	.uleb128 .LEHE153-.LEHB153
	.uleb128 .L567-.LFB3054
	.uleb128 0
	.uleb128 .LEHB154-.LFB3054
	.uleb128 .LEHE154-.LEHB154
	.uleb128 .L568-.LFB3054
	.uleb128 0
	.uleb128 .LEHB155-.LFB3054
	.uleb128 .LEHE155-.LEHB155
	.uleb128 .L569-.LFB3054
	.uleb128 0
	.uleb128 .LEHB156-.LFB3054
	.uleb128 .LEHE156-.LEHB156
	.uleb128 .L570-.LFB3054
	.uleb128 0
	.uleb128 .LEHB157-.LFB3054
	.uleb128 .LEHE157-.LEHB157
	.uleb128 .L571-.LFB3054
	.uleb128 0
	.uleb128 .LEHB158-.LFB3054
	.uleb128 .LEHE158-.LEHB158
	.uleb128 .L572-.LFB3054
	.uleb128 0
	.uleb128 .LEHB159-.LFB3054
	.uleb128 .LEHE159-.LEHB159
	.uleb128 .L573-.LFB3054
	.uleb128 0
	.uleb128 .LEHB160-.LFB3054
	.uleb128 .LEHE160-.LEHB160
	.uleb128 .L574-.LFB3054
	.uleb128 0
	.uleb128 .LEHB161-.LFB3054
	.uleb128 .LEHE161-.LEHB161
	.uleb128 .L575-.LFB3054
	.uleb128 0
	.uleb128 .LEHB162-.LFB3054
	.uleb128 .LEHE162-.LEHB162
	.uleb128 .L576-.LFB3054
	.uleb128 0
	.uleb128 .LEHB163-.LFB3054
	.uleb128 .LEHE163-.LEHB163
	.uleb128 .L577-.LFB3054
	.uleb128 0
	.uleb128 .LEHB164-.LFB3054
	.uleb128 .LEHE164-.LEHB164
	.uleb128 .L578-.LFB3054
	.uleb128 0
	.uleb128 .LEHB165-.LFB3054
	.uleb128 .LEHE165-.LEHB165
	.uleb128 .L579-.LFB3054
	.uleb128 0
	.uleb128 .LEHB166-.LFB3054
	.uleb128 .LEHE166-.LEHB166
	.uleb128 .L580-.LFB3054
	.uleb128 0
	.uleb128 .LEHB167-.LFB3054
	.uleb128 .LEHE167-.LEHB167
	.uleb128 .L581-.LFB3054
	.uleb128 0
	.uleb128 .LEHB168-.LFB3054
	.uleb128 .LEHE168-.LEHB168
	.uleb128 .L582-.LFB3054
	.uleb128 0
	.uleb128 .LEHB169-.LFB3054
	.uleb128 .LEHE169-.LEHB169
	.uleb128 .L583-.LFB3054
	.uleb128 0
	.uleb128 .LEHB170-.LFB3054
	.uleb128 .LEHE170-.LEHB170
	.uleb128 .L584-.LFB3054
	.uleb128 0
	.uleb128 .LEHB171-.LFB3054
	.uleb128 .LEHE171-.LEHB171
	.uleb128 .L585-.LFB3054
	.uleb128 0
	.uleb128 .LEHB172-.LFB3054
	.uleb128 .LEHE172-.LEHB172
	.uleb128 .L586-.LFB3054
	.uleb128 0
	.uleb128 .LEHB173-.LFB3054
	.uleb128 .LEHE173-.LEHB173
	.uleb128 .L587-.LFB3054
	.uleb128 0
	.uleb128 .LEHB174-.LFB3054
	.uleb128 .LEHE174-.LEHB174
	.uleb128 .L588-.LFB3054
	.uleb128 0
	.uleb128 .LEHB175-.LFB3054
	.uleb128 .LEHE175-.LEHB175
	.uleb128 .L589-.LFB3054
	.uleb128 0
	.uleb128 .LEHB176-.LFB3054
	.uleb128 .LEHE176-.LEHB176
	.uleb128 .L590-.LFB3054
	.uleb128 0
	.uleb128 .LEHB177-.LFB3054
	.uleb128 .LEHE177-.LEHB177
	.uleb128 .L591-.LFB3054
	.uleb128 0
	.uleb128 .LEHB178-.LFB3054
	.uleb128 .LEHE178-.LEHB178
	.uleb128 .L592-.LFB3054
	.uleb128 0
	.uleb128 .LEHB179-.LFB3054
	.uleb128 .LEHE179-.LEHB179
	.uleb128 .L593-.LFB3054
	.uleb128 0
	.uleb128 .LEHB180-.LFB3054
	.uleb128 .LEHE180-.LEHB180
	.uleb128 .L594-.LFB3054
	.uleb128 0
	.uleb128 .LEHB181-.LFB3054
	.uleb128 .LEHE181-.LEHB181
	.uleb128 .L595-.LFB3054
	.uleb128 0
	.uleb128 .LEHB182-.LFB3054
	.uleb128 .LEHE182-.LEHB182
	.uleb128 .L596-.LFB3054
	.uleb128 0
	.uleb128 .LEHB183-.LFB3054
	.uleb128 .LEHE183-.LEHB183
	.uleb128 .L597-.LFB3054
	.uleb128 0
	.uleb128 .LEHB184-.LFB3054
	.uleb128 .LEHE184-.LEHB184
	.uleb128 .L598-.LFB3054
	.uleb128 0
	.uleb128 .LEHB185-.LFB3054
	.uleb128 .LEHE185-.LEHB185
	.uleb128 .L599-.LFB3054
	.uleb128 0
	.uleb128 .LEHB186-.LFB3054
	.uleb128 .LEHE186-.LEHB186
	.uleb128 .L600-.LFB3054
	.uleb128 0
	.uleb128 .LEHB187-.LFB3054
	.uleb128 .LEHE187-.LEHB187
	.uleb128 .L601-.LFB3054
	.uleb128 0
	.uleb128 .LEHB188-.LFB3054
	.uleb128 .LEHE188-.LEHB188
	.uleb128 .L602-.LFB3054
	.uleb128 0
	.uleb128 .LEHB189-.LFB3054
	.uleb128 .LEHE189-.LEHB189
	.uleb128 .L603-.LFB3054
	.uleb128 0
	.uleb128 .LEHB190-.LFB3054
	.uleb128 .LEHE190-.LEHB190
	.uleb128 .L604-.LFB3054
	.uleb128 0
	.uleb128 .LEHB191-.LFB3054
	.uleb128 .LEHE191-.LEHB191
	.uleb128 .L605-.LFB3054
	.uleb128 0
	.uleb128 .LEHB192-.LFB3054
	.uleb128 .LEHE192-.LEHB192
	.uleb128 .L606-.LFB3054
	.uleb128 0
	.uleb128 .LEHB193-.LFB3054
	.uleb128 .LEHE193-.LEHB193
	.uleb128 .L607-.LFB3054
	.uleb128 0
	.uleb128 .LEHB194-.LFB3054
	.uleb128 .LEHE194-.LEHB194
	.uleb128 0
	.uleb128 0
	.uleb128 .LEHB195-.LFB3054
	.uleb128 .LEHE195-.LEHB195
	.uleb128 .L608-.LFB3054
	.uleb128 0
	.uleb128 .LEHB196-.LFB3054
	.uleb128 .LEHE196-.LEHB196
	.uleb128 .L609-.LFB3054
	.uleb128 0
	.uleb128 .LEHB197-.LFB3054
	.uleb128 .LEHE197-.LEHB197
	.uleb128 .L610-.LFB3054
	.uleb128 0
	.uleb128 .LEHB198-.LFB3054
	.uleb128 .LEHE198-.LEHB198
	.uleb128 .L611-.LFB3054
	.uleb128 0
	.uleb128 .LEHB199-.LFB3054
	.uleb128 .LEHE199-.LEHB199
	.uleb128 0
	.uleb128 0
	.uleb128 .LEHB200-.LFB3054
	.uleb128 .LEHE200-.LEHB200
	.uleb128 .L612-.LFB3054
	.uleb128 0
	.uleb128 .LEHB201-.LFB3054
	.uleb128 .LEHE201-.LEHB201
	.uleb128 .L613-.LFB3054
	.uleb128 0
	.uleb128 .LEHB202-.LFB3054
	.uleb128 .LEHE202-.LEHB202
	.uleb128 .L614-.LFB3054
	.uleb128 0
	.uleb128 .LEHB203-.LFB3054
	.uleb128 .LEHE203-.LEHB203
	.uleb128 0
	.uleb128 0
	.uleb128 .LEHB204-.LFB3054
	.uleb128 .LEHE204-.LEHB204
	.uleb128 .L615-.LFB3054
	.uleb128 0
	.uleb128 .LEHB205-.LFB3054
	.uleb128 .LEHE205-.LEHB205
	.uleb128 .L616-.LFB3054
	.uleb128 0
	.uleb128 .LEHB206-.LFB3054
	.uleb128 .LEHE206-.LEHB206
	.uleb128 .L617-.LFB3054
	.uleb128 0
	.uleb128 .LEHB207-.LFB3054
	.uleb128 .LEHE207-.LEHB207
	.uleb128 .L618-.LFB3054
	.uleb128 0
	.uleb128 .LEHB208-.LFB3054
	.uleb128 .LEHE208-.LEHB208
	.uleb128 .L619-.LFB3054
	.uleb128 0
	.uleb128 .LEHB209-.LFB3054
	.uleb128 .LEHE209-.LEHB209
	.uleb128 .L620-.LFB3054
	.uleb128 0
	.uleb128 .LEHB210-.LFB3054
	.uleb128 .LEHE210-.LEHB210
	.uleb128 .L621-.LFB3054
	.uleb128 0
	.uleb128 .LEHB211-.LFB3054
	.uleb128 .LEHE211-.LEHB211
	.uleb128 .L622-.LFB3054
	.uleb128 0
	.uleb128 .LEHB212-.LFB3054
	.uleb128 .LEHE212-.LEHB212
	.uleb128 .L623-.LFB3054
	.uleb128 0
	.uleb128 .LEHB213-.LFB3054
	.uleb128 .LEHE213-.LEHB213
	.uleb128 .L624-.LFB3054
	.uleb128 0
	.uleb128 .LEHB214-.LFB3054
	.uleb128 .LEHE214-.LEHB214
	.uleb128 .L625-.LFB3054
	.uleb128 0
	.uleb128 .LEHB215-.LFB3054
	.uleb128 .LEHE215-.LEHB215
	.uleb128 .L626-.LFB3054
	.uleb128 0
	.uleb128 .LEHB216-.LFB3054
	.uleb128 .LEHE216-.LEHB216
	.uleb128 .L627-.LFB3054
	.uleb128 0
	.uleb128 .LEHB217-.LFB3054
	.uleb128 .LEHE217-.LEHB217
	.uleb128 .L628-.LFB3054
	.uleb128 0
	.uleb128 .LEHB218-.LFB3054
	.uleb128 .LEHE218-.LEHB218
	.uleb128 .L629-.LFB3054
	.uleb128 0
	.uleb128 .LEHB219-.LFB3054
	.uleb128 .LEHE219-.LEHB219
	.uleb128 .L630-.LFB3054
	.uleb128 0
	.uleb128 .LEHB220-.LFB3054
	.uleb128 .LEHE220-.LEHB220
	.uleb128 .L631-.LFB3054
	.uleb128 0
	.uleb128 .LEHB221-.LFB3054
	.uleb128 .LEHE221-.LEHB221
	.uleb128 .L632-.LFB3054
	.uleb128 0
	.uleb128 .LEHB222-.LFB3054
	.uleb128 .LEHE222-.LEHB222
	.uleb128 .L633-.LFB3054
	.uleb128 0
	.uleb128 .LEHB223-.LFB3054
	.uleb128 .LEHE223-.LEHB223
	.uleb128 .L634-.LFB3054
	.uleb128 0
	.uleb128 .LEHB224-.LFB3054
	.uleb128 .LEHE224-.LEHB224
	.uleb128 .L635-.LFB3054
	.uleb128 0
	.uleb128 .LEHB225-.LFB3054
	.uleb128 .LEHE225-.LEHB225
	.uleb128 .L636-.LFB3054
	.uleb128 0
	.uleb128 .LEHB226-.LFB3054
	.uleb128 .LEHE226-.LEHB226
	.uleb128 .L637-.LFB3054
	.uleb128 0
	.uleb128 .LEHB227-.LFB3054
	.uleb128 .LEHE227-.LEHB227
	.uleb128 .L638-.LFB3054
	.uleb128 0
	.uleb128 .LEHB228-.LFB3054
	.uleb128 .LEHE228-.LEHB228
	.uleb128 .L639-.LFB3054
	.uleb128 0
	.uleb128 .LEHB229-.LFB3054
	.uleb128 .LEHE229-.LEHB229
	.uleb128 0
	.uleb128 0
	.uleb128 .LEHB230-.LFB3054
	.uleb128 .LEHE230-.LEHB230
	.uleb128 .L640-.LFB3054
	.uleb128 0
	.uleb128 .LEHB231-.LFB3054
	.uleb128 .LEHE231-.LEHB231
	.uleb128 .L641-.LFB3054
	.uleb128 0
	.uleb128 .LEHB232-.LFB3054
	.uleb128 .LEHE232-.LEHB232
	.uleb128 .L642-.LFB3054
	.uleb128 0
	.uleb128 .LEHB233-.LFB3054
	.uleb128 .LEHE233-.LEHB233
	.uleb128 .L643-.LFB3054
	.uleb128 0
	.uleb128 .LEHB234-.LFB3054
	.uleb128 .LEHE234-.LEHB234
	.uleb128 .L644-.LFB3054
	.uleb128 0
	.uleb128 .LEHB235-.LFB3054
	.uleb128 .LEHE235-.LEHB235
	.uleb128 .L645-.LFB3054
	.uleb128 0
	.uleb128 .LEHB236-.LFB3054
	.uleb128 .LEHE236-.LEHB236
	.uleb128 .L646-.LFB3054
	.uleb128 0
	.uleb128 .LEHB237-.LFB3054
	.uleb128 .LEHE237-.LEHB237
	.uleb128 .L647-.LFB3054
	.uleb128 0
	.uleb128 .LEHB238-.LFB3054
	.uleb128 .LEHE238-.LEHB238
	.uleb128 .L648-.LFB3054
	.uleb128 0
	.uleb128 .LEHB239-.LFB3054
	.uleb128 .LEHE239-.LEHB239
	.uleb128 .L649-.LFB3054
	.uleb128 0
	.uleb128 .LEHB240-.LFB3054
	.uleb128 .LEHE240-.LEHB240
	.uleb128 .L650-.LFB3054
	.uleb128 0
	.uleb128 .LEHB241-.LFB3054
	.uleb128 .LEHE241-.LEHB241
	.uleb128 .L651-.LFB3054
	.uleb128 0
	.uleb128 .LEHB242-.LFB3054
	.uleb128 .LEHE242-.LEHB242
	.uleb128 .L652-.LFB3054
	.uleb128 0
	.uleb128 .LEHB243-.LFB3054
	.uleb128 .LEHE243-.LEHB243
	.uleb128 .L653-.LFB3054
	.uleb128 0
	.uleb128 .LEHB244-.LFB3054
	.uleb128 .LEHE244-.LEHB244
	.uleb128 .L654-.LFB3054
	.uleb128 0
	.uleb128 .LEHB245-.LFB3054
	.uleb128 .LEHE245-.LEHB245
	.uleb128 0
	.uleb128 0
	.uleb128 .LEHB246-.LFB3054
	.uleb128 .LEHE246-.LEHB246
	.uleb128 .L655-.LFB3054
	.uleb128 0
	.uleb128 .LEHB247-.LFB3054
	.uleb128 .LEHE247-.LEHB247
	.uleb128 .L656-.LFB3054
	.uleb128 0
	.uleb128 .LEHB248-.LFB3054
	.uleb128 .LEHE248-.LEHB248
	.uleb128 .L657-.LFB3054
	.uleb128 0
	.uleb128 .LEHB249-.LFB3054
	.uleb128 .LEHE249-.LEHB249
	.uleb128 .L658-.LFB3054
	.uleb128 0
	.uleb128 .LEHB250-.LFB3054
	.uleb128 .LEHE250-.LEHB250
	.uleb128 .L659-.LFB3054
	.uleb128 0
	.uleb128 .LEHB251-.LFB3054
	.uleb128 .LEHE251-.LEHB251
	.uleb128 .L660-.LFB3054
	.uleb128 0
	.uleb128 .LEHB252-.LFB3054
	.uleb128 .LEHE252-.LEHB252
	.uleb128 .L661-.LFB3054
	.uleb128 0
	.uleb128 .LEHB253-.LFB3054
	.uleb128 .LEHE253-.LEHB253
	.uleb128 .L662-.LFB3054
	.uleb128 0
	.uleb128 .LEHB254-.LFB3054
	.uleb128 .LEHE254-.LEHB254
	.uleb128 .L663-.LFB3054
	.uleb128 0
	.uleb128 .LEHB255-.LFB3054
	.uleb128 .LEHE255-.LEHB255
	.uleb128 .L664-.LFB3054
	.uleb128 0
	.uleb128 .LEHB256-.LFB3054
	.uleb128 .LEHE256-.LEHB256
	.uleb128 .L665-.LFB3054
	.uleb128 0
	.uleb128 .LEHB257-.LFB3054
	.uleb128 .LEHE257-.LEHB257
	.uleb128 0
	.uleb128 0
	.uleb128 .LEHB258-.LFB3054
	.uleb128 .LEHE258-.LEHB258
	.uleb128 .L666-.LFB3054
	.uleb128 0
	.uleb128 .LEHB259-.LFB3054
	.uleb128 .LEHE259-.LEHB259
	.uleb128 .L667-.LFB3054
	.uleb128 0
	.uleb128 .LEHB260-.LFB3054
	.uleb128 .LEHE260-.LEHB260
	.uleb128 .L668-.LFB3054
	.uleb128 0
	.uleb128 .LEHB261-.LFB3054
	.uleb128 .LEHE261-.LEHB261
	.uleb128 .L669-.LFB3054
	.uleb128 0
	.uleb128 .LEHB262-.LFB3054
	.uleb128 .LEHE262-.LEHB262
	.uleb128 .L670-.LFB3054
	.uleb128 0
	.uleb128 .LEHB263-.LFB3054
	.uleb128 .LEHE263-.LEHB263
	.uleb128 .L671-.LFB3054
	.uleb128 0
	.uleb128 .LEHB264-.LFB3054
	.uleb128 .LEHE264-.LEHB264
	.uleb128 .L672-.LFB3054
	.uleb128 0
	.uleb128 .LEHB265-.LFB3054
	.uleb128 .LEHE265-.LEHB265
	.uleb128 .L673-.LFB3054
	.uleb128 0
	.uleb128 .LEHB266-.LFB3054
	.uleb128 .LEHE266-.LEHB266
	.uleb128 .L674-.LFB3054
	.uleb128 0
	.uleb128 .LEHB267-.LFB3054
	.uleb128 .LEHE267-.LEHB267
	.uleb128 .L675-.LFB3054
	.uleb128 0
	.uleb128 .LEHB268-.LFB3054
	.uleb128 .LEHE268-.LEHB268
	.uleb128 .L676-.LFB3054
	.uleb128 0
	.uleb128 .LEHB269-.LFB3054
	.uleb128 .LEHE269-.LEHB269
	.uleb128 .L677-.LFB3054
	.uleb128 0
	.uleb128 .LEHB270-.LFB3054
	.uleb128 .LEHE270-.LEHB270
	.uleb128 .L678-.LFB3054
	.uleb128 0
	.uleb128 .LEHB271-.LFB3054
	.uleb128 .LEHE271-.LEHB271
	.uleb128 .L679-.LFB3054
	.uleb128 0
	.uleb128 .LEHB272-.LFB3054
	.uleb128 .LEHE272-.LEHB272
	.uleb128 .L680-.LFB3054
	.uleb128 0
	.uleb128 .LEHB273-.LFB3054
	.uleb128 .LEHE273-.LEHB273
	.uleb128 .L681-.LFB3054
	.uleb128 0
	.uleb128 .LEHB274-.LFB3054
	.uleb128 .LEHE274-.LEHB274
	.uleb128 .L682-.LFB3054
	.uleb128 0
	.uleb128 .LEHB275-.LFB3054
	.uleb128 .LEHE275-.LEHB275
	.uleb128 .L683-.LFB3054
	.uleb128 0
	.uleb128 .LEHB276-.LFB3054
	.uleb128 .LEHE276-.LEHB276
	.uleb128 .L684-.LFB3054
	.uleb128 0
	.uleb128 .LEHB277-.LFB3054
	.uleb128 .LEHE277-.LEHB277
	.uleb128 .L685-.LFB3054
	.uleb128 0
	.uleb128 .LEHB278-.LFB3054
	.uleb128 .LEHE278-.LEHB278
	.uleb128 .L686-.LFB3054
	.uleb128 0
	.uleb128 .LEHB279-.LFB3054
	.uleb128 .LEHE279-.LEHB279
	.uleb128 .L687-.LFB3054
	.uleb128 0
	.uleb128 .LEHB280-.LFB3054
	.uleb128 .LEHE280-.LEHB280
	.uleb128 .L688-.LFB3054
	.uleb128 0
	.uleb128 .LEHB281-.LFB3054
	.uleb128 .LEHE281-.LEHB281
	.uleb128 .L689-.LFB3054
	.uleb128 0
	.uleb128 .LEHB282-.LFB3054
	.uleb128 .LEHE282-.LEHB282
	.uleb128 .L690-.LFB3054
	.uleb128 0
	.uleb128 .LEHB283-.LFB3054
	.uleb128 .LEHE283-.LEHB283
	.uleb128 .L691-.LFB3054
	.uleb128 0
	.uleb128 .LEHB284-.LFB3054
	.uleb128 .LEHE284-.LEHB284
	.uleb128 .L692-.LFB3054
	.uleb128 0
	.uleb128 .LEHB285-.LFB3054
	.uleb128 .LEHE285-.LEHB285
	.uleb128 .L693-.LFB3054
	.uleb128 0
	.uleb128 .LEHB286-.LFB3054
	.uleb128 .LEHE286-.LEHB286
	.uleb128 .L694-.LFB3054
	.uleb128 0
	.uleb128 .LEHB287-.LFB3054
	.uleb128 .LEHE287-.LEHB287
	.uleb128 0
	.uleb128 0
	.uleb128 .LEHB288-.LFB3054
	.uleb128 .LEHE288-.LEHB288
	.uleb128 .L695-.LFB3054
	.uleb128 0
	.uleb128 .LEHB289-.LFB3054
	.uleb128 .LEHE289-.LEHB289
	.uleb128 .L696-.LFB3054
	.uleb128 0
	.uleb128 .LEHB290-.LFB3054
	.uleb128 .LEHE290-.LEHB290
	.uleb128 .L697-.LFB3054
	.uleb128 0
	.uleb128 .LEHB291-.LFB3054
	.uleb128 .LEHE291-.LEHB291
	.uleb128 .L698-.LFB3054
	.uleb128 0
	.uleb128 .LEHB292-.LFB3054
	.uleb128 .LEHE292-.LEHB292
	.uleb128 0
	.uleb128 0
	.uleb128 .LEHB293-.LFB3054
	.uleb128 .LEHE293-.LEHB293
	.uleb128 .L699-.LFB3054
	.uleb128 0
	.uleb128 .LEHB294-.LFB3054
	.uleb128 .LEHE294-.LEHB294
	.uleb128 .L700-.LFB3054
	.uleb128 0
	.uleb128 .LEHB295-.LFB3054
	.uleb128 .LEHE295-.LEHB295
	.uleb128 .L701-.LFB3054
	.uleb128 0
	.uleb128 .LEHB296-.LFB3054
	.uleb128 .LEHE296-.LEHB296
	.uleb128 .L702-.LFB3054
	.uleb128 0
	.uleb128 .LEHB297-.LFB3054
	.uleb128 .LEHE297-.LEHB297
	.uleb128 .L703-.LFB3054
	.uleb128 0
	.uleb128 .LEHB298-.LFB3054
	.uleb128 .LEHE298-.LEHB298
	.uleb128 .L704-.LFB3054
	.uleb128 0
	.uleb128 .LEHB299-.LFB3054
	.uleb128 .LEHE299-.LEHB299
	.uleb128 .L705-.LFB3054
	.uleb128 0
	.uleb128 .LEHB300-.LFB3054
	.uleb128 .LEHE300-.LEHB300
	.uleb128 .L706-.LFB3054
	.uleb128 0
	.uleb128 .LEHB301-.LFB3054
	.uleb128 .LEHE301-.LEHB301
	.uleb128 .L707-.LFB3054
	.uleb128 0
	.uleb128 .LEHB302-.LFB3054
	.uleb128 .LEHE302-.LEHB302
	.uleb128 .L708-.LFB3054
	.uleb128 0
	.uleb128 .LEHB303-.LFB3054
	.uleb128 .LEHE303-.LEHB303
	.uleb128 .L709-.LFB3054
	.uleb128 0
	.uleb128 .LEHB304-.LFB3054
	.uleb128 .LEHE304-.LEHB304
	.uleb128 .L710-.LFB3054
	.uleb128 0
	.uleb128 .LEHB305-.LFB3054
	.uleb128 .LEHE305-.LEHB305
	.uleb128 .L711-.LFB3054
	.uleb128 0
	.uleb128 .LEHB306-.LFB3054
	.uleb128 .LEHE306-.LEHB306
	.uleb128 .L712-.LFB3054
	.uleb128 0
	.uleb128 .LEHB307-.LFB3054
	.uleb128 .LEHE307-.LEHB307
	.uleb128 .L713-.LFB3054
	.uleb128 0
	.uleb128 .LEHB308-.LFB3054
	.uleb128 .LEHE308-.LEHB308
	.uleb128 .L714-.LFB3054
	.uleb128 0
	.uleb128 .LEHB309-.LFB3054
	.uleb128 .LEHE309-.LEHB309
	.uleb128 .L715-.LFB3054
	.uleb128 0
	.uleb128 .LEHB310-.LFB3054
	.uleb128 .LEHE310-.LEHB310
	.uleb128 .L716-.LFB3054
	.uleb128 0
	.uleb128 .LEHB311-.LFB3054
	.uleb128 .LEHE311-.LEHB311
	.uleb128 .L717-.LFB3054
	.uleb128 0
	.uleb128 .LEHB312-.LFB3054
	.uleb128 .LEHE312-.LEHB312
	.uleb128 .L718-.LFB3054
	.uleb128 0
	.uleb128 .LEHB313-.LFB3054
	.uleb128 .LEHE313-.LEHB313
	.uleb128 .L719-.LFB3054
	.uleb128 0
	.uleb128 .LEHB314-.LFB3054
	.uleb128 .LEHE314-.LEHB314
	.uleb128 .L720-.LFB3054
	.uleb128 0
	.uleb128 .LEHB315-.LFB3054
	.uleb128 .LEHE315-.LEHB315
	.uleb128 .L721-.LFB3054
	.uleb128 0
	.uleb128 .LEHB316-.LFB3054
	.uleb128 .LEHE316-.LEHB316
	.uleb128 .L722-.LFB3054
	.uleb128 0
	.uleb128 .LEHB317-.LFB3054
	.uleb128 .LEHE317-.LEHB317
	.uleb128 .L723-.LFB3054
	.uleb128 0
	.uleb128 .LEHB318-.LFB3054
	.uleb128 .LEHE318-.LEHB318
	.uleb128 0
	.uleb128 0
	.uleb128 .LEHB319-.LFB3054
	.uleb128 .LEHE319-.LEHB319
	.uleb128 .L724-.LFB3054
	.uleb128 0
	.uleb128 .LEHB320-.LFB3054
	.uleb128 .LEHE320-.LEHB320
	.uleb128 .L725-.LFB3054
	.uleb128 0
	.uleb128 .LEHB321-.LFB3054
	.uleb128 .LEHE321-.LEHB321
	.uleb128 .L726-.LFB3054
	.uleb128 0
	.uleb128 .LEHB322-.LFB3054
	.uleb128 .LEHE322-.LEHB322
	.uleb128 .L727-.LFB3054
	.uleb128 0
	.uleb128 .LEHB323-.LFB3054
	.uleb128 .LEHE323-.LEHB323
	.uleb128 0
	.uleb128 0
	.uleb128 .LEHB324-.LFB3054
	.uleb128 .LEHE324-.LEHB324
	.uleb128 .L728-.LFB3054
	.uleb128 0
	.uleb128 .LEHB325-.LFB3054
	.uleb128 .LEHE325-.LEHB325
	.uleb128 .L729-.LFB3054
	.uleb128 0
	.uleb128 .LEHB326-.LFB3054
	.uleb128 .LEHE326-.LEHB326
	.uleb128 .L730-.LFB3054
	.uleb128 0
	.uleb128 .LEHB327-.LFB3054
	.uleb128 .LEHE327-.LEHB327
	.uleb128 .L731-.LFB3054
	.uleb128 0
	.uleb128 .LEHB328-.LFB3054
	.uleb128 .LEHE328-.LEHB328
	.uleb128 .L732-.LFB3054
	.uleb128 0
	.uleb128 .LEHB329-.LFB3054
	.uleb128 .LEHE329-.LEHB329
	.uleb128 .L733-.LFB3054
	.uleb128 0
	.uleb128 .LEHB330-.LFB3054
	.uleb128 .LEHE330-.LEHB330
	.uleb128 .L734-.LFB3054
	.uleb128 0
	.uleb128 .LEHB331-.LFB3054
	.uleb128 .LEHE331-.LEHB331
	.uleb128 0
	.uleb128 0
	.uleb128 .LEHB332-.LFB3054
	.uleb128 .LEHE332-.LEHB332
	.uleb128 .L735-.LFB3054
	.uleb128 0
	.uleb128 .LEHB333-.LFB3054
	.uleb128 .LEHE333-.LEHB333
	.uleb128 .L736-.LFB3054
	.uleb128 0
	.uleb128 .LEHB334-.LFB3054
	.uleb128 .LEHE334-.LEHB334
	.uleb128 .L737-.LFB3054
	.uleb128 0
	.uleb128 .LEHB335-.LFB3054
	.uleb128 .LEHE335-.LEHB335
	.uleb128 .L738-.LFB3054
	.uleb128 0
	.uleb128 .LEHB336-.LFB3054
	.uleb128 .LEHE336-.LEHB336
	.uleb128 0
	.uleb128 0
	.uleb128 .LEHB337-.LFB3054
	.uleb128 .LEHE337-.LEHB337
	.uleb128 .L739-.LFB3054
	.uleb128 0
	.uleb128 .LEHB338-.LFB3054
	.uleb128 .LEHE338-.LEHB338
	.uleb128 .L740-.LFB3054
	.uleb128 0
	.uleb128 .LEHB339-.LFB3054
	.uleb128 .LEHE339-.LEHB339
	.uleb128 .L741-.LFB3054
	.uleb128 0
	.uleb128 .LEHB340-.LFB3054
	.uleb128 .LEHE340-.LEHB340
	.uleb128 0
	.uleb128 0
.LLSDACSE3054:
	.text
	.seh_endproc
	.section	.text$_ZN9__gnu_cxx11char_traitsIcE6lengthEPKc,"x"
	.linkonce discard
	.align 2
	.globl	_ZN9__gnu_cxx11char_traitsIcE6lengthEPKc
	.def	_ZN9__gnu_cxx11char_traitsIcE6lengthEPKc;	.scl	2;	.type	32;	.endef
	.seh_proc	_ZN9__gnu_cxx11char_traitsIcE6lengthEPKc
_ZN9__gnu_cxx11char_traitsIcE6lengthEPKc:
.LFB3065:
	pushq	%rbp
	.seh_pushreg	%rbp
	movq	%rsp, %rbp
	.seh_setframe	%rbp, 0
	subq	$48, %rsp
	.seh_stackalloc	48
	.seh_endprologue
	movq	%rcx, 16(%rbp)
	movq	$0, -8(%rbp)
	jmp	.L744
.L745:
	addq	$1, -8(%rbp)
.L744:
	movb	$0, -9(%rbp)
	movq	16(%rbp), %rdx
	movq	-8(%rbp), %rax
	leaq	(%rdx,%rax), %rcx
	leaq	-9(%rbp), %rax
	movq	%rax, %rdx
	call	_ZN9__gnu_cxx11char_traitsIcE2eqERKcS3_
	xorl	$1, %eax
	testb	%al, %al
	jne	.L745
	movq	-8(%rbp), %rax
	addq	$48, %rsp
	popq	%rbp
	ret
	.seh_endproc
	.section	.text$_ZNSt7__cxx1112basic_stringIcSt11char_traitsIcESaIcEE12_Alloc_hiderD1Ev,"x"
	.linkonce discard
	.align 2
	.globl	_ZNSt7__cxx1112basic_stringIcSt11char_traitsIcESaIcEE12_Alloc_hiderD1Ev
	.def	_ZNSt7__cxx1112basic_stringIcSt11char_traitsIcESaIcEE12_Alloc_hiderD1Ev;	.scl	2;	.type	32;	.endef
	.seh_proc	_ZNSt7__cxx1112basic_stringIcSt11char_traitsIcESaIcEE12_Alloc_hiderD1Ev
_ZNSt7__cxx1112basic_stringIcSt11char_traitsIcESaIcEE12_Alloc_hiderD1Ev:
.LFB3167:
	pushq	%rbp
	.seh_pushreg	%rbp
	movq	%rsp, %rbp
	.seh_setframe	%rbp, 0
	subq	$48, %rsp
	.seh_stackalloc	48
	.seh_endprologue
	movq	%rcx, 16(%rbp)
	movq	16(%rbp), %rax
	movq	%rax, -8(%rbp)
	movq	-8(%rbp), %rax
	movq	%rax, %rcx
	call	_ZNSt15__new_allocatorIcED2Ev
	nop
	nop
	addq	$48, %rsp
	popq	%rbp
	ret
	.seh_endproc
	.section	.text$_ZNSt7__cxx1112basic_stringIcSt11char_traitsIcESaIcEEC1Ev,"x"
	.linkonce discard
	.align 2
	.globl	_ZNSt7__cxx1112basic_stringIcSt11char_traitsIcESaIcEEC1Ev
	.def	_ZNSt7__cxx1112basic_stringIcSt11char_traitsIcESaIcEEC1Ev;	.scl	2;	.type	32;	.endef
	.seh_proc	_ZNSt7__cxx1112basic_stringIcSt11char_traitsIcESaIcEEC1Ev
_ZNSt7__cxx1112basic_stringIcSt11char_traitsIcESaIcEEC1Ev:
.LFB3169:
	pushq	%rbp
	.seh_pushreg	%rbp
	pushq	%rbx
	.seh_pushreg	%rbx
	subq	$72, %rsp
	.seh_stackalloc	72
	leaq	64(%rsp), %rbp
	.seh_setframe	%rbp, 64
	.seh_endprologue
	movq	%rcx, 32(%rbp)
	movq	32(%rbp), %rbx
	leaq	-17(%rbp), %rax
	movq	%rax, -16(%rbp)
	nop
	nop
	movq	32(%rbp), %rax
	movq	%rax, %rcx
	call	_ZNSt7__cxx1112basic_stringIcSt11char_traitsIcESaIcEE13_M_local_dataEv
	leaq	-17(%rbp), %rdx
	movq	%rdx, %r8
	movq	%rax, %rdx
	movq	%rbx, %rcx
	call	_ZNSt7__cxx1112basic_stringIcSt11char_traitsIcESaIcEE12_Alloc_hiderC1EPcOS3_
	leaq	-17(%rbp), %rax
	movq	%rax, %rcx
	call	_ZNSt15__new_allocatorIcED2Ev
	nop
	movq	32(%rbp), %rax
	movq	%rax, -8(%rbp)
	nop
	movq	32(%rbp), %rax
	movl	$0, %edx
	movq	%rax, %rcx
	call	_ZNSt7__cxx1112basic_stringIcSt11char_traitsIcESaIcEE13_M_set_lengthEy
	nop
	addq	$72, %rsp
	popq	%rbx
	popq	%rbp
	ret
	.seh_handler	__gxx_personality_seh0, @unwind, @except
	.seh_handlerdata
.LLSDA3169:
	.byte	0xff
	.byte	0xff
	.byte	0x1
	.uleb128 .LLSDACSE3169-.LLSDACSB3169
.LLSDACSB3169:
.LLSDACSE3169:
	.section	.text$_ZNSt7__cxx1112basic_stringIcSt11char_traitsIcESaIcEEC1Ev,"x"
	.linkonce discard
	.seh_endproc
	.section	.text$_ZNSt7__cxx1112basic_stringIcSt11char_traitsIcESaIcEED1Ev,"x"
	.linkonce discard
	.align 2
	.globl	_ZNSt7__cxx1112basic_stringIcSt11char_traitsIcESaIcEED1Ev
	.def	_ZNSt7__cxx1112basic_stringIcSt11char_traitsIcESaIcEED1Ev;	.scl	2;	.type	32;	.endef
	.seh_proc	_ZNSt7__cxx1112basic_stringIcSt11char_traitsIcESaIcEED1Ev
_ZNSt7__cxx1112basic_stringIcSt11char_traitsIcESaIcEED1Ev:
.LFB3172:
	pushq	%rbp
	.seh_pushreg	%rbp
	movq	%rsp, %rbp
	.seh_setframe	%rbp, 0
	subq	$32, %rsp
	.seh_stackalloc	32
	.seh_endprologue
	movq	%rcx, 16(%rbp)
	movq	16(%rbp), %rax
	movq	%rax, %rcx
	call	_ZNSt7__cxx1112basic_stringIcSt11char_traitsIcESaIcEE10_M_disposeEv
	movq	16(%rbp), %rax
	movq	%rax, %rcx
	call	_ZNSt7__cxx1112basic_stringIcSt11char_traitsIcESaIcEE12_Alloc_hiderD1Ev
	nop
	addq	$32, %rsp
	popq	%rbp
	ret
	.seh_handler	__gxx_personality_seh0, @unwind, @except
	.seh_handlerdata
.LLSDA3172:
	.byte	0xff
	.byte	0xff
	.byte	0x1
	.uleb128 .LLSDACSE3172-.LLSDACSB3172
.LLSDACSB3172:
.LLSDACSE3172:
	.section	.text$_ZNSt7__cxx1112basic_stringIcSt11char_traitsIcESaIcEED1Ev,"x"
	.linkonce discard
	.seh_endproc
	.section	.text$_ZNSt7__cxx1112basic_stringIcSt11char_traitsIcESaIcEEC1EOS4_,"x"
	.linkonce discard
	.align 2
	.globl	_ZNSt7__cxx1112basic_stringIcSt11char_traitsIcESaIcEEC1EOS4_
	.def	_ZNSt7__cxx1112basic_stringIcSt11char_traitsIcESaIcEEC1EOS4_;	.scl	2;	.type	32;	.endef
	.seh_proc	_ZNSt7__cxx1112basic_stringIcSt11char_traitsIcESaIcEEC1EOS4_
_ZNSt7__cxx1112basic_stringIcSt11char_traitsIcESaIcEEC1EOS4_:
.LFB3180:
	pushq	%rbp
	.seh_pushreg	%rbp
	pushq	%rsi
	.seh_pushreg	%rsi
	pushq	%rbx
	.seh_pushreg	%rbx
	subq	$64, %rsp
	.seh_stackalloc	64
	leaq	64(%rsp), %rbp
	.seh_setframe	%rbp, 64
	.seh_endprologue
	movq	%rcx, 32(%rbp)
	movq	%rdx, 40(%rbp)
	movq	32(%rbp), %rbx
	movq	40(%rbp), %rax
	movq	%rax, %rcx
	call	_ZNSt7__cxx1112basic_stringIcSt11char_traitsIcESaIcEE16_M_get_allocatorEv
	movq	%rax, -8(%rbp)
	movq	-8(%rbp), %rsi
	movq	32(%rbp), %rax
	movq	%rax, %rcx
	call	_ZNSt7__cxx1112basic_stringIcSt11char_traitsIcESaIcEE13_M_local_dataEv
	movq	%rsi, %r8
	movq	%rax, %rdx
	movq	%rbx, %rcx
	call	_ZNSt7__cxx1112basic_stringIcSt11char_traitsIcESaIcEE12_Alloc_hiderC1EPcOS3_
	movq	40(%rbp), %rax
	movq	%rax, %rcx
	call	_ZNKSt7__cxx1112basic_stringIcSt11char_traitsIcESaIcEE11_M_is_localEv
	testb	%al, %al
	je	.L752
	movq	32(%rbp), %rax
	movq	%rax, -16(%rbp)
	nop
	movq	40(%rbp), %rax
	movq	%rax, %rcx
	call	_ZNKSt7__cxx1112basic_stringIcSt11char_traitsIcESaIcEE6lengthEv
	leaq	1(%rax), %rcx
	movq	40(%rbp), %rax
	leaq	16(%rax), %rdx
	movq	32(%rbp), %rax
	addq	$16, %rax
	movq	%rcx, %r8
	movq	%rax, %rcx
	call	_ZNSt11char_traitsIcE4copyEPcPKcy
	jmp	.L753
.L752:
	movq	40(%rbp), %rax
	movq	%rax, %rcx
	call	_ZNKSt7__cxx1112basic_stringIcSt11char_traitsIcESaIcEE7_M_dataEv
	movq	%rax, %rdx
	movq	32(%rbp), %rax
	movq	%rax, %rcx
	call	_ZNSt7__cxx1112basic_stringIcSt11char_traitsIcESaIcEE7_M_dataEPc
	movq	40(%rbp), %rax
	movq	16(%rax), %rdx
	movq	32(%rbp), %rax
	movq	%rax, %rcx
	call	_ZNSt7__cxx1112basic_stringIcSt11char_traitsIcESaIcEE11_M_capacityEy
.L753:
	movq	40(%rbp), %rax
	movq	%rax, %rcx
	call	_ZNKSt7__cxx1112basic_stringIcSt11char_traitsIcESaIcEE6lengthEv
	movq	%rax, %rdx
	movq	32(%rbp), %rax
	movq	%rax, %rcx
	call	_ZNSt7__cxx1112basic_stringIcSt11char_traitsIcESaIcEE9_M_lengthEy
	movq	40(%rbp), %rax
	movq	%rax, -24(%rbp)
	movq	-24(%rbp), %rax
	movq	%rax, %rcx
	call	_ZNSt7__cxx1112basic_stringIcSt11char_traitsIcESaIcEE13_M_local_dataEv
	movq	%rax, %rdx
	nop
	movq	40(%rbp), %rax
	movq	%rax, %rcx
	call	_ZNSt7__cxx1112basic_stringIcSt11char_traitsIcESaIcEE7_M_dataEPc
	movq	40(%rbp), %rax
	movl	$0, %edx
	movq	%rax, %rcx
	call	_ZNSt7__cxx1112basic_stringIcSt11char_traitsIcESaIcEE13_M_set_lengthEy
	nop
	addq	$64, %rsp
	popq	%rbx
	popq	%rsi
	popq	%rbp
	ret
	.seh_handler	__gxx_personality_seh0, @unwind, @except
	.seh_handlerdata
.LLSDA3180:
	.byte	0xff
	.byte	0xff
	.byte	0x1
	.uleb128 .LLSDACSE3180-.LLSDACSB3180
.LLSDACSB3180:
.LLSDACSE3180:
	.section	.text$_ZNSt7__cxx1112basic_stringIcSt11char_traitsIcESaIcEEC1EOS4_,"x"
	.linkonce discard
	.seh_endproc
	.section	.text$_ZNSt7__cxx1112basic_stringIcSt11char_traitsIcESaIcEEC1ERKS4_,"x"
	.linkonce discard
	.align 2
	.globl	_ZNSt7__cxx1112basic_stringIcSt11char_traitsIcESaIcEEC1ERKS4_
	.def	_ZNSt7__cxx1112basic_stringIcSt11char_traitsIcESaIcEEC1ERKS4_;	.scl	2;	.type	32;	.endef
	.seh_proc	_ZNSt7__cxx1112basic_stringIcSt11char_traitsIcESaIcEEC1ERKS4_
_ZNSt7__cxx1112basic_stringIcSt11char_traitsIcESaIcEEC1ERKS4_:
.LFB3343:
	pushq	%rbp
	.seh_pushreg	%rbp
	pushq	%rbx
	.seh_pushreg	%rbx
	subq	$104, %rsp
	.seh_stackalloc	104
	leaq	96(%rsp), %rbp
	.seh_setframe	%rbp, 96
	.seh_endprologue
	movq	%rcx, 32(%rbp)
	movq	%rdx, 40(%rbp)
	movq	32(%rbp), %rbx
	movq	40(%rbp), %rax
	movq	%rax, %rcx
	call	_ZNKSt7__cxx1112basic_stringIcSt11char_traitsIcESaIcEE16_M_get_allocatorEv
	movq	%rax, -8(%rbp)
	leaq	-49(%rbp), %rax
	movq	-8(%rbp), %rdx
	movq	%rdx, -16(%rbp)
	movq	%rax, -24(%rbp)
	movq	-16(%rbp), %rax
	movq	%rax, -32(%rbp)
	movq	-24(%rbp), %rax
	movq	%rax, -40(%rbp)
	movq	-32(%rbp), %rax
	movq	%rax, -48(%rbp)
	nop
	nop
	nop
	nop
	movq	32(%rbp), %rax
	movq	%rax, %rcx
	call	_ZNSt7__cxx1112basic_stringIcSt11char_traitsIcESaIcEE13_M_local_dataEv
	leaq	-49(%rbp), %rdx
	movq	%rdx, %r8
	movq	%rax, %rdx
	movq	%rbx, %rcx
	call	_ZNSt7__cxx1112basic_stringIcSt11char_traitsIcESaIcEE12_Alloc_hiderC1EPcOS3_
	leaq	-49(%rbp), %rax
	movq	%rax, %rcx
	call	_ZNSt15__new_allocatorIcED2Ev
	nop
	movq	40(%rbp), %rax
	movq	%rax, %rcx
	call	_ZNKSt7__cxx1112basic_stringIcSt11char_traitsIcESaIcEE6lengthEv
	movq	%rax, %rbx
	movq	40(%rbp), %rax
	movq	%rax, %rcx
	call	_ZNKSt7__cxx1112basic_stringIcSt11char_traitsIcESaIcEE7_M_dataEv
	movq	%rax, %rdx
	movq	32(%rbp), %rax
	movq	%rbx, %r8
	movq	%rax, %rcx
.LEHB341:
	call	_ZNSt7__cxx1112basic_stringIcSt11char_traitsIcESaIcEE12_M_constructILb1EEEvPKcy
.LEHE341:
	jmp	.L760
.L759:
	movq	%rax, %rbx
	movq	32(%rbp), %rax
	movq	%rax, %rcx
	call	_ZNSt7__cxx1112basic_stringIcSt11char_traitsIcESaIcEE12_Alloc_hiderD1Ev
	movq	%rbx, %rax
	movq	%rax, %rcx
.LEHB342:
	call	_Unwind_Resume
	nop
.LEHE342:
.L760:
	addq	$104, %rsp
	popq	%rbx
	popq	%rbp
	ret
	.seh_handler	__gxx_personality_seh0, @unwind, @except
	.seh_handlerdata
.LLSDA3343:
	.byte	0xff
	.byte	0xff
	.byte	0x1
	.uleb128 .LLSDACSE3343-.LLSDACSB3343
.LLSDACSB3343:
	.uleb128 .LEHB341-.LFB3343
	.uleb128 .LEHE341-.LEHB341
	.uleb128 .L759-.LFB3343
	.uleb128 0
	.uleb128 .LEHB342-.LFB3343
	.uleb128 .LEHE342-.LEHB342
	.uleb128 0
	.uleb128 0
.LLSDACSE3343:
	.section	.text$_ZNSt7__cxx1112basic_stringIcSt11char_traitsIcESaIcEEC1ERKS4_,"x"
	.linkonce discard
	.seh_endproc
	.section	.text$_ZNSt8_Rb_treeIiSt4pairIKi5ValueESt10_Select1stIS3_ESt4lessIiESaIS3_EE13_Rb_tree_implIS7_Lb1EEC1Ev,"x"
	.linkonce discard
	.align 2
	.globl	_ZNSt8_Rb_treeIiSt4pairIKi5ValueESt10_Select1stIS3_ESt4lessIiESaIS3_EE13_Rb_tree_implIS7_Lb1EEC1Ev
	.def	_ZNSt8_Rb_treeIiSt4pairIKi5ValueESt10_Select1stIS3_ESt4lessIiESaIS3_EE13_Rb_tree_implIS7_Lb1EEC1Ev;	.scl	2;	.type	32;	.endef
	.seh_proc	_ZNSt8_Rb_treeIiSt4pairIKi5ValueESt10_Select1stIS3_ESt4lessIiESaIS3_EE13_Rb_tree_implIS7_Lb1EEC1Ev
_ZNSt8_Rb_treeIiSt4pairIKi5ValueESt10_Select1stIS3_ESt4lessIiESaIS3_EE13_Rb_tree_implIS7_Lb1EEC1Ev:
.LFB3346:
	pushq	%rbp
	.seh_pushreg	%rbp
	movq	%rsp, %rbp
	.seh_setframe	%rbp, 0
	subq	$48, %rsp
	.seh_stackalloc	48
	.seh_endprologue
	movq	%rcx, 16(%rbp)
	movq	16(%rbp), %rax
	movq	%rax, -8(%rbp)
	movq	-8(%rbp), %rax
	movq	%rax, -16(%rbp)
	nop
	nop
	movq	16(%rbp), %rax
	movq	%rax, %rcx
	call	_ZNSt20_Rb_tree_key_compareISt4lessIiEEC2Ev
	movq	16(%rbp), %rax
	addq	$8, %rax
	movq	%rax, %rcx
	call	_ZNSt15_Rb_tree_headerC2Ev
	nop
	addq	$48, %rsp
	popq	%rbp
	ret
	.seh_endproc
	.section	.text$_ZNSt3mapIi5ValueSt4lessIiESaISt4pairIKiS0_EEEixERS4_,"x"
	.linkonce discard
	.align 2
	.globl	_ZNSt3mapIi5ValueSt4lessIiESaISt4pairIKiS0_EEEixERS4_
	.def	_ZNSt3mapIi5ValueSt4lessIiESaISt4pairIKiS0_EEEixERS4_;	.scl	2;	.type	32;	.endef
	.seh_proc	_ZNSt3mapIi5ValueSt4lessIiESaISt4pairIKiS0_EEEixERS4_
_ZNSt3mapIi5ValueSt4lessIiESaISt4pairIKiS0_EEEixERS4_:
.LFB3353:
	pushq	%rbp
	.seh_pushreg	%rbp
	pushq	%rbx
	.seh_pushreg	%rbx
	subq	$104, %rsp
	.seh_stackalloc	104
	leaq	96(%rsp), %rbp
	.seh_setframe	%rbp, 96
	.seh_endprologue
	movq	%rcx, 32(%rbp)
	movq	%rdx, 40(%rbp)
	movq	40(%rbp), %rdx
	movq	32(%rbp), %rax
	movq	%rax, %rcx
	call	_ZNSt3mapIi5ValueSt4lessIiESaISt4pairIKiS0_EEE11lower_boundERS4_
	movq	%rax, -40(%rbp)
	movq	32(%rbp), %rax
	movq	%rax, %rcx
	call	_ZNSt3mapIi5ValueSt4lessIiESaISt4pairIKiS0_EEE3endEv
	movq	%rax, -32(%rbp)
	leaq	-32(%rbp), %rdx
	leaq	-40(%rbp), %rax
	movq	%rax, %rcx
	call	_ZSteqRKSt17_Rb_tree_iteratorISt4pairIKi5ValueEES6_
	testb	%al, %al
	jne	.L763
	movq	32(%rbp), %rax
	movq	%rax, %rcx
	call	_ZNKSt3mapIi5ValueSt4lessIiESaISt4pairIKiS0_EEE8key_compEv
	leaq	-40(%rbp), %rax
	movq	%rax, %rcx
	call	_ZNKSt17_Rb_tree_iteratorISt4pairIKi5ValueEEdeEv
	movq	%rax, %rcx
	movq	40(%rbp), %rdx
	leaq	-18(%rbp), %rax
	movq	%rcx, %r8
	movq	%rax, %rcx
	call	_ZNKSt4lessIiEclERKiS2_
	testb	%al, %al
	je	.L764
.L763:
	movl	$1, %eax
	jmp	.L765
.L764:
	movl	$0, %eax
.L765:
	testb	%al, %al
	je	.L766
	movq	32(%rbp), %rbx
	movq	40(%rbp), %rdx
	leaq	-16(%rbp), %rax
	movq	%rax, %rcx
	call	_ZNSt5tupleIJRKiEEC1ILb1ELb1EEES1_
	leaq	-40(%rbp), %rdx
	leaq	-8(%rbp), %rax
	movq	%rax, %rcx
	call	_ZNSt23_Rb_tree_const_iteratorISt4pairIKi5ValueEEC1ERKSt17_Rb_tree_iteratorIS3_E
	leaq	-16(%rbp), %rcx
	leaq	_ZSt19piecewise_construct(%rip), %r8
	movq	-8(%rbp), %rax
	leaq	-17(%rbp), %rdx
	movq	%rdx, 32(%rsp)
	movq	%rcx, %r9
	movq	%rax, %rdx
	movq	%rbx, %rcx
	call	_ZNSt8_Rb_treeIiSt4pairIKi5ValueESt10_Select1stIS3_ESt4lessIiESaIS3_EE22_M_emplace_hint_uniqueIJRKSt21piecewise_construct_tSt5tupleIJRS1_EESE_IJEEEEESt17_Rb_tree_iteratorIS3_ESt23_Rb_tree_const_iteratorIS3_EDpOT_
	movq	%rax, -40(%rbp)
.L766:
	leaq	-40(%rbp), %rax
	movq	%rax, %rcx
	call	_ZNKSt17_Rb_tree_iteratorISt4pairIKi5ValueEEdeEv
	addq	$8, %rax
	addq	$104, %rsp
	popq	%rbx
	popq	%rbp
	ret
	.seh_endproc
	.section	.text$_ZNSt7__cxx1112basic_stringIcSt11char_traitsIcESaIcEEaSERKS4_,"x"
	.linkonce discard
	.align 2
	.globl	_ZNSt7__cxx1112basic_stringIcSt11char_traitsIcESaIcEEaSERKS4_
	.def	_ZNSt7__cxx1112basic_stringIcSt11char_traitsIcESaIcEEaSERKS4_;	.scl	2;	.type	32;	.endef
	.seh_proc	_ZNSt7__cxx1112basic_stringIcSt11char_traitsIcESaIcEEaSERKS4_
_ZNSt7__cxx1112basic_stringIcSt11char_traitsIcESaIcEEaSERKS4_:
.LFB3366:
	pushq	%rbp
	.seh_pushreg	%rbp
	movq	%rsp, %rbp
	.seh_setframe	%rbp, 0
	subq	$32, %rsp
	.seh_stackalloc	32
	.seh_endprologue
	movq	%rcx, 16(%rbp)
	movq	%rdx, 24(%rbp)
	movq	24(%rbp), %rdx
	movq	16(%rbp), %rax
	movq	%rax, %rcx
	call	_ZNSt7__cxx1112basic_stringIcSt11char_traitsIcESaIcEE6assignERKS4_
	addq	$32, %rsp
	popq	%rbp
	ret
	.seh_endproc
	.section	.text$_ZNSt12_Vector_baseISt3mapINSt7__cxx1112basic_stringIcSt11char_traitsIcESaIcEEE5ValueSt4lessIS6_ESaISt4pairIKS6_S7_EEESaISE_EE12_Vector_implC1Ev,"x"
	.linkonce discard
	.align 2
	.globl	_ZNSt12_Vector_baseISt3mapINSt7__cxx1112basic_stringIcSt11char_traitsIcESaIcEEE5ValueSt4lessIS6_ESaISt4pairIKS6_S7_EEESaISE_EE12_Vector_implC1Ev
	.def	_ZNSt12_Vector_baseISt3mapINSt7__cxx1112basic_stringIcSt11char_traitsIcESaIcEEE5ValueSt4lessIS6_ESaISt4pairIKS6_S7_EEESaISE_EE12_Vector_implC1Ev;	.scl	2;	.type	32;	.endef
	.seh_proc	_ZNSt12_Vector_baseISt3mapINSt7__cxx1112basic_stringIcSt11char_traitsIcESaIcEEE5ValueSt4lessIS6_ESaISt4pairIKS6_S7_EEESaISE_EE12_Vector_implC1Ev
_ZNSt12_Vector_baseISt3mapINSt7__cxx1112basic_stringIcSt11char_traitsIcESaIcEEE5ValueSt4lessIS6_ESaISt4pairIKS6_S7_EEESaISE_EE12_Vector_implC1Ev:
.LFB3369:
	pushq	%rbp
	.seh_pushreg	%rbp
	movq	%rsp, %rbp
	.seh_setframe	%rbp, 0
	subq	$48, %rsp
	.seh_stackalloc	48
	.seh_endprologue
	movq	%rcx, 16(%rbp)
	movq	16(%rbp), %rax
	movq	%rax, -8(%rbp)
	movq	-8(%rbp), %rax
	movq	%rax, -16(%rbp)
	nop
	nop
	movq	16(%rbp), %rax
	movq	%rax, %rcx
	call	_ZNSt12_Vector_baseISt3mapINSt7__cxx1112basic_stringIcSt11char_traitsIcESaIcEEE5ValueSt4lessIS6_ESaISt4pairIKS6_S7_EEESaISE_EE17_Vector_impl_dataC2Ev
	nop
	addq	$48, %rsp
	popq	%rbp
	ret
	.seh_endproc
	.section	.text$_ZNSt12_Vector_baseISt3mapINSt7__cxx1112basic_stringIcSt11char_traitsIcESaIcEEE5ValueSt4lessIS6_ESaISt4pairIKS6_S7_EEESaISE_EED2Ev,"x"
	.linkonce discard
	.align 2
	.globl	_ZNSt12_Vector_baseISt3mapINSt7__cxx1112basic_stringIcSt11char_traitsIcESaIcEEE5ValueSt4lessIS6_ESaISt4pairIKS6_S7_EEESaISE_EED2Ev
	.def	_ZNSt12_Vector_baseISt3mapINSt7__cxx1112basic_stringIcSt11char_traitsIcESaIcEEE5ValueSt4lessIS6_ESaISt4pairIKS6_S7_EEESaISE_EED2Ev;	.scl	2;	.type	32;	.endef
	.seh_proc	_ZNSt12_Vector_baseISt3mapINSt7__cxx1112basic_stringIcSt11char_traitsIcESaIcEEE5ValueSt4lessIS6_ESaISt4pairIKS6_S7_EEESaISE_EED2Ev
_ZNSt12_Vector_baseISt3mapINSt7__cxx1112basic_stringIcSt11char_traitsIcESaIcEEE5ValueSt4lessIS6_ESaISt4pairIKS6_S7_EEESaISE_EED2Ev:
.LFB3374:
	pushq	%rbp
	.seh_pushreg	%rbp
	movq	%rsp, %rbp
	.seh_setframe	%rbp, 0
	subq	$32, %rsp
	.seh_stackalloc	32
	.seh_endprologue
	movq	%rcx, 16(%rbp)
	movq	16(%rbp), %rax
	movq	16(%rax), %rdx
	movq	16(%rbp), %rax
	movq	(%rax), %rax
	subq	%rax, %rdx
	sarq	$4, %rdx
	movabsq	$-6148914691236517205, %rax
	imulq	%rdx, %rax
	movq	%rax, %rcx
	movq	16(%rbp), %rax
	movq	(%rax), %rdx
	movq	16(%rbp), %rax
	movq	%rcx, %r8
	movq	%rax, %rcx
	call	_ZNSt12_Vector_baseISt3mapINSt7__cxx1112basic_stringIcSt11char_traitsIcESaIcEEE5ValueSt4lessIS6_ESaISt4pairIKS6_S7_EEESaISE_EE13_M_deallocateEPSE_y
	movq	16(%rbp), %rax
	movq	%rax, %rcx
	call	_ZNSt12_Vector_baseISt3mapINSt7__cxx1112basic_stringIcSt11char_traitsIcESaIcEEE5ValueSt4lessIS6_ESaISt4pairIKS6_S7_EEESaISE_EE12_Vector_implD1Ev
	nop
	addq	$32, %rsp
	popq	%rbp
	ret
	.seh_handler	__gxx_personality_seh0, @unwind, @except
	.seh_handlerdata
.LLSDA3374:
	.byte	0xff
	.byte	0xff
	.byte	0x1
	.uleb128 .LLSDACSE3374-.LLSDACSB3374
.LLSDACSB3374:
.LLSDACSE3374:
	.section	.text$_ZNSt12_Vector_baseISt3mapINSt7__cxx1112basic_stringIcSt11char_traitsIcESaIcEEE5ValueSt4lessIS6_ESaISt4pairIKS6_S7_EEESaISE_EED2Ev,"x"
	.linkonce discard
	.seh_endproc
	.section	.text$_ZNSt8_Rb_treeINSt7__cxx1112basic_stringIcSt11char_traitsIcESaIcEEESt4pairIKS5_5ValueESt10_Select1stIS9_ESt4lessIS5_ESaIS9_EE13_Rb_tree_implISD_Lb1EEC1Ev,"x"
	.linkonce discard
	.align 2
	.globl	_ZNSt8_Rb_treeINSt7__cxx1112basic_stringIcSt11char_traitsIcESaIcEEESt4pairIKS5_5ValueESt10_Select1stIS9_ESt4lessIS5_ESaIS9_EE13_Rb_tree_implISD_Lb1EEC1Ev
	.def	_ZNSt8_Rb_treeINSt7__cxx1112basic_stringIcSt11char_traitsIcESaIcEEESt4pairIKS5_5ValueESt10_Select1stIS9_ESt4lessIS5_ESaIS9_EE13_Rb_tree_implISD_Lb1EEC1Ev;	.scl	2;	.type	32;	.endef
	.seh_proc	_ZNSt8_Rb_treeINSt7__cxx1112basic_stringIcSt11char_traitsIcESaIcEEESt4pairIKS5_5ValueESt10_Select1stIS9_ESt4lessIS5_ESaIS9_EE13_Rb_tree_implISD_Lb1EEC1Ev
_ZNSt8_Rb_treeINSt7__cxx1112basic_stringIcSt11char_traitsIcESaIcEEESt4pairIKS5_5ValueESt10_Select1stIS9_ESt4lessIS5_ESaIS9_EE13_Rb_tree_implISD_Lb1EEC1Ev:
.LFB3378:
	pushq	%rbp
	.seh_pushreg	%rbp
	movq	%rsp, %rbp
	.seh_setframe	%rbp, 0
	subq	$48, %rsp
	.seh_stackalloc	48
	.seh_endprologue
	movq	%rcx, 16(%rbp)
	movq	16(%rbp), %rax
	movq	%rax, -8(%rbp)
	movq	-8(%rbp), %rax
	movq	%rax, -16(%rbp)
	nop
	nop
	movq	16(%rbp), %rax
	movq	%rax, %rcx
	call	_ZNSt20_Rb_tree_key_compareISt4lessINSt7__cxx1112basic_stringIcSt11char_traitsIcESaIcEEEEEC2Ev
	movq	16(%rbp), %rax
	addq	$8, %rax
	movq	%rax, %rcx
	call	_ZNSt15_Rb_tree_headerC2Ev
	nop
	addq	$48, %rsp
	popq	%rbp
	ret
	.seh_endproc
	.section	.text$_ZNSt8_Rb_treeINSt7__cxx1112basic_stringIcSt11char_traitsIcESaIcEEESt4pairIKS5_5ValueESt10_Select1stIS9_ESt4lessIS5_ESaIS9_EED1Ev,"x"
	.linkonce discard
	.align 2
	.globl	_ZNSt8_Rb_treeINSt7__cxx1112basic_stringIcSt11char_traitsIcESaIcEEESt4pairIKS5_5ValueESt10_Select1stIS9_ESt4lessIS5_ESaIS9_EED1Ev
	.def	_ZNSt8_Rb_treeINSt7__cxx1112basic_stringIcSt11char_traitsIcESaIcEEESt4pairIKS5_5ValueESt10_Select1stIS9_ESt4lessIS5_ESaIS9_EED1Ev;	.scl	2;	.type	32;	.endef
	.seh_proc	_ZNSt8_Rb_treeINSt7__cxx1112basic_stringIcSt11char_traitsIcESaIcEEESt4pairIKS5_5ValueESt10_Select1stIS9_ESt4lessIS5_ESaIS9_EED1Ev
_ZNSt8_Rb_treeINSt7__cxx1112basic_stringIcSt11char_traitsIcESaIcEEESt4pairIKS5_5ValueESt10_Select1stIS9_ESt4lessIS5_ESaIS9_EED1Ev:
.LFB3384:
	pushq	%rbp
	.seh_pushreg	%rbp
	movq	%rsp, %rbp
	.seh_setframe	%rbp, 0
	subq	$32, %rsp
	.seh_stackalloc	32
	.seh_endprologue
	movq	%rcx, 16(%rbp)
	movq	16(%rbp), %rax
	movq	%rax, %rcx
	call	_ZNKSt8_Rb_treeINSt7__cxx1112basic_stringIcSt11char_traitsIcESaIcEEESt4pairIKS5_5ValueESt10_Select1stIS9_ESt4lessIS5_ESaIS9_EE13_M_begin_nodeEv
	movq	%rax, %rdx
	movq	16(%rbp), %rax
	movq	%rax, %rcx
	call	_ZNSt8_Rb_treeINSt7__cxx1112basic_stringIcSt11char_traitsIcESaIcEEESt4pairIKS5_5ValueESt10_Select1stIS9_ESt4lessIS5_ESaIS9_EE8_M_eraseEPSt13_Rb_tree_nodeIS9_E
	movq	16(%rbp), %rax
	movq	%rax, %rcx
	call	_ZNSt8_Rb_treeINSt7__cxx1112basic_stringIcSt11char_traitsIcESaIcEEESt4pairIKS5_5ValueESt10_Select1stIS9_ESt4lessIS5_ESaIS9_EE13_Rb_tree_implISD_Lb1EED1Ev
	nop
	addq	$32, %rsp
	popq	%rbp
	ret
	.seh_handler	__gxx_personality_seh0, @unwind, @except
	.seh_handlerdata
.LLSDA3384:
	.byte	0xff
	.byte	0xff
	.byte	0x1
	.uleb128 .LLSDACSE3384-.LLSDACSB3384
.LLSDACSB3384:
.LLSDACSE3384:
	.section	.text$_ZNSt8_Rb_treeINSt7__cxx1112basic_stringIcSt11char_traitsIcESaIcEEESt4pairIKS5_5ValueESt10_Select1stIS9_ESt4lessIS5_ESaIS9_EED1Ev,"x"
	.linkonce discard
	.seh_endproc
	.section	.text$_ZNKSt6vectorISt3mapINSt7__cxx1112basic_stringIcSt11char_traitsIcESaIcEEE5ValueSt4lessIS6_ESaISt4pairIKS6_S7_EEESaISE_EE5emptyEv,"x"
	.linkonce discard
	.align 2
	.globl	_ZNKSt6vectorISt3mapINSt7__cxx1112basic_stringIcSt11char_traitsIcESaIcEEE5ValueSt4lessIS6_ESaISt4pairIKS6_S7_EEESaISE_EE5emptyEv
	.def	_ZNKSt6vectorISt3mapINSt7__cxx1112basic_stringIcSt11char_traitsIcESaIcEEE5ValueSt4lessIS6_ESaISt4pairIKS6_S7_EEESaISE_EE5emptyEv;	.scl	2;	.type	32;	.endef
	.seh_proc	_ZNKSt6vectorISt3mapINSt7__cxx1112basic_stringIcSt11char_traitsIcESaIcEEE5ValueSt4lessIS6_ESaISt4pairIKS6_S7_EEESaISE_EE5emptyEv
_ZNKSt6vectorISt3mapINSt7__cxx1112basic_stringIcSt11char_traitsIcESaIcEEE5ValueSt4lessIS6_ESaISt4pairIKS6_S7_EEESaISE_EE5emptyEv:
.LFB3385:
	pushq	%rbp
	.seh_pushreg	%rbp
	movq	%rsp, %rbp
	.seh_setframe	%rbp, 0
	subq	$64, %rsp
	.seh_stackalloc	64
	.seh_endprologue
	movq	%rcx, 16(%rbp)
	movq	16(%rbp), %rax
	movq	%rax, %rcx
	call	_ZNKSt6vectorISt3mapINSt7__cxx1112basic_stringIcSt11char_traitsIcESaIcEEE5ValueSt4lessIS6_ESaISt4pairIKS6_S7_EEESaISE_EE3endEv
	movq	%rax, -32(%rbp)
	movq	16(%rbp), %rax
	movq	%rax, %rcx
	call	_ZNKSt6vectorISt3mapINSt7__cxx1112basic_stringIcSt11char_traitsIcESaIcEEE5ValueSt4lessIS6_ESaISt4pairIKS6_S7_EEESaISE_EE5beginEv
	movq	%rax, -24(%rbp)
	leaq	-24(%rbp), %rax
	movq	%rax, -8(%rbp)
	movq	-8(%rbp), %rax
	movq	(%rax), %rdx
	leaq	-32(%rbp), %rax
	movq	%rax, -16(%rbp)
	movq	-16(%rbp), %rax
	movq	(%rax), %rax
	cmpq	%rax, %rdx
	sete	%al
	addq	$64, %rsp
	popq	%rbp
	ret
	.seh_endproc
	.section .rdata,"dr"
.LC40:
	.ascii "!this->empty()\0"
	.align 8
.LC41:
	.ascii "std::vector<_Tp, _Alloc>::reference std::vector<_Tp, _Alloc>::back() [with _Tp = std::map<std::__cxx11::basic_string<char>, Value>; _Alloc = std::allocator<std::map<std::__cxx11::basic_string<char>, Value> >; reference = std::map<std::__cxx11::basic_string<char>, Value>&]\0"
	.align 8
.LC42:
	.ascii "C:/msys64/ucrt64/include/c++/15.2.0/bits/stl_vector.h\0"
	.section	.text$_ZNSt6vectorISt3mapINSt7__cxx1112basic_stringIcSt11char_traitsIcESaIcEEE5ValueSt4lessIS6_ESaISt4pairIKS6_S7_EEESaISE_EE4backEv,"x"
	.linkonce discard
	.align 2
	.globl	_ZNSt6vectorISt3mapINSt7__cxx1112basic_stringIcSt11char_traitsIcESaIcEEE5ValueSt4lessIS6_ESaISt4pairIKS6_S7_EEESaISE_EE4backEv
